(dp0
S'class_sl'
p1
(dp2
S'rag2'
p3
(I0
I10
tp4
sS'truc'
p5
(I10
I30
tp6
ssS'class_hierarchy'
p7
(dp8
g3
(lp9
S'rag2_0.0'
p10
asg5
(lp11
S'truc_0.0'
p12
assS'feats'
p13
(dp14
S'Bacteria.Actinobacteria.Actinobacteria.Coriobacteriales.Coriobacteriaceae'
p15
(lp16
F552.40988813702063
aF1403.0867909399999
aF1195.0286806852373
aF3073.770491803074
aF734.75385745755113
aF2378.4748030299997
aF1064.4474550016819
aF879.50747581273072
aF1046.755059315813
aF1160.42935885933
aF1626.89804772
aF1182.6783115031262
aF2787.5409041296684
aF3087.0344552912557
aF7831.4581954524847
aF5758.1573896387372
aF3656.99873897
aF4858.3955445000001
aF3850.3850385039605
aF872.41003271553791
aF411.09969167560558
aF6216.8309325199998
aF281.76951253871653
aF337.79979732034064
aF2178.3700666309469
aF1055.4596046800034
aF1740.3411068600001
aF1133.2361988057178
aF586.91186540183537
aF482.50904704515608
asS'Bacteria.Firmicutes.Bacilli.Lactobacillales.Streptococcaceae'
p17
(lp18
F1104.8197762720406
aF1002.20485067
aF1075.5258126177141
aF796.90346083813029
aF0.0
aF743.27337594799997
aF1354.7513063621402
aF1465.8457930262184
aF348.91835310560447
aF386.80978628777768
aF1952.2776572700002
aF1182.6783115031262
aF484.78972245759508
aF896.23580959939659
aF1544.2311934697857
aF2617.3442680148769
aF1513.2408574999999
aF2014.45668918
aF733.40667400046857
aF3925.8451472219231
aF616.64953751240773
aF2122.8203184200001
aF422.65426880857501
aF1463.7991217218096
aF2434.6488980004706
aF4989.4454039481989
aF5685.1142823999999
aF1133.2361988057178
aF1565.0983077408946
aF7961.3992762360685
asS'Bacteria.Firmicutes.Clostridia.Clostridiales.Eubacteriaceae'
p19
(lp20
F0.0
aF0.0
aF0.0
aF0.0
aF0.0
aF0.0
aF0.0
aF0.0
aF0.0
aF0.0
aF0.0
aF0.0
aF0.0
aF0.0
aF0.0
aF0.0
aF0.0
aF0.0
aF0.0
aF0.0
aF0.0
aF0.0
aF0.0
aF0.0
aF0.0
aF0.0
aF0.0
aF0.0
aF0.0
aF0.0
asS'Archaea.Euryarchaeota.Methanopyri.Methanopyrales'
p21
(lp22
F0.0
aF0.0
aF0.0
aF0.0
aF0.0
aF0.0
aF0.0
aF0.0
aF0.0
aF0.0
aF0.0
aF0.0
aF0.0
aF0.0
aF0.0
aF0.0
aF0.0
aF0.0
aF0.0
aF0.0
aF0.0
aF0.0
aF0.0
aF0.0
aF0.0
aF0.0
aF0.0
aF0.0
aF0.0
aF0.0
asS'Bacteria.Firmicutes.Bacilli.Bacillales.Bacillaceae.Jeotgalibacillus'
p23
(lp24
F0.0
aF0.0
aF0.0
aF0.0
aF0.0
aF0.0
aF0.0
aF0.0
aF0.0
aF0.0
aF0.0
aF0.0
aF0.0
aF0.0
aF0.0
aF0.0
aF0.0
aF0.0
aF0.0
aF0.0
aF0.0
aF0.0
aF0.0
aF0.0
aF0.0
aF0.0
aF0.0
aF0.0
aF0.0
aF0.0
asS'Bacteria.Actinobacteria.Actinobacteria.Actinomycetales.Micromonosporaceae'
p25
(lp26
F0.0
aF0.0
aF0.0
aF0.0
aF0.0
aF0.0
aF0.0
aF0.0
aF0.0
aF0.0
aF0.0
aF0.0
aF0.0
aF0.0
aF0.0
aF0.0
aF0.0
aF0.0
aF0.0
aF0.0
aF0.0
aF0.0
aF0.0
aF0.0
aF0.0
aF0.0
aF0.0
aF0.0
aF0.0
aF0.0
asS'Bacteria.Firmicutes.Bacilli.Lactobacillales.Lactobacillaceae.Paralactobacillus'
p27
(lp28
F0.0
aF0.0
aF0.0
aF0.0
aF0.0
aF0.0
aF0.0
aF0.0
aF0.0
aF0.0
aF0.0
aF0.0
aF0.0
aF0.0
aF0.0
aF0.0
aF0.0
aF0.0
aF0.0
aF0.0
aF0.0
aF0.0
aF0.0
aF0.0
aF0.0
aF0.0
aF0.0
aF0.0
aF0.0
aF0.0
asS'Bacteria.Firmicutes.Clostridia.Clostridiales.Lachnospiraceae.Anaerostipes'
p29
(lp30
F138.10247203375499
aF200.440970134
aF119.50286806852372
aF455.37340619278871
aF734.75385745755113
aF0.0
aF0.0
aF732.92289651110889
aF174.45917655230195
aF386.80978628777768
aF325.379609544
aF90.975254730686601
aF605.98715307249495
aF1095.3993228459296
aF882.41782484044927
aF0.0
aF126.10340479200001
aF236.99490460999999
aF183.35166850061725
aF0.0
aF0.0
aF0.0
aF0.0
aF1125.9993244044717
aF128.1394156837612
aF0.0
aF0.0
aF80.945442771594045
aF0.0
aF0.0
asS'Archaea.Crenarchaeota'
p31
(lp32
F0.0
aF0.0
aF0.0
aF0.0
aF0.0
aF0.0
aF0.0
aF0.0
aF0.0
aF0.0
aF0.0
aF0.0
aF0.0
aF0.0
aF0.0
aF0.0
aF0.0
aF0.0
aF0.0
aF0.0
aF0.0
aF0.0
aF0.0
aF0.0
aF0.0
aF0.0
aF0.0
aF0.0
aF0.0
aF0.0
asS'Bacteria.Bacteroidetes.Sphingobacteria'
p33
(lp34
F0.0
aF0.0
aF0.0
aF0.0
aF0.0
aF0.0
aF0.0
aF0.0
aF0.0
aF0.0
aF0.0
aF0.0
aF0.0
aF0.0
aF0.0
aF0.0
aF0.0
aF0.0
aF0.0
aF0.0
aF0.0
aF0.0
aF0.0
aF0.0
aF0.0
aF0.0
aF0.0
aF0.0
aF0.0
aF0.0
asS'Bacteria.Firmicutes.Clostridia.Thermoanaerobacterales.Thermoanaerobacteraceae.Mahella'
p35
(lp36
F0.0
aF0.0
aF0.0
aF0.0
aF0.0
aF0.0
aF0.0
aF0.0
aF0.0
aF0.0
aF0.0
aF0.0
aF0.0
aF0.0
aF0.0
aF0.0
aF0.0
aF0.0
aF0.0
aF0.0
aF0.0
aF0.0
aF0.0
aF0.0
aF0.0
aF0.0
aF0.0
aF0.0
aF0.0
aF0.0
asS'Bacteria.Actinobacteria.Actinobacteria.Acidimicrobiales.Acidimicrobiaceae'
p37
(lp38
F0.0
aF0.0
aF0.0
aF0.0
aF0.0
aF0.0
aF0.0
aF0.0
aF0.0
aF0.0
aF0.0
aF0.0
aF0.0
aF0.0
aF0.0
aF0.0
aF0.0
aF0.0
aF0.0
aF0.0
aF0.0
aF0.0
aF0.0
aF0.0
aF0.0
aF0.0
aF0.0
aF0.0
aF0.0
aF0.0
asS'Bacteria.Proteobacteria.Gammaproteobacteria.Enterobacteriales.Enterobacteriaceae.Escherichia_Shigella'
p39
(lp40
F0.0
aF0.0
aF1673.0401529653357
aF227.68670309689443
aF0.0
aF0.0
aF0.0
aF0.0
aF0.0
aF0.0
aF108.45986984800001
aF727.80203784569278
aF0.0
aF298.74526986679894
aF551.51114052478056
aF174.48961786732468
aF126.10340479200001
aF236.99490460999999
aF183.35166850061725
aF218.10250817888448
aF0.0
aF454.89006823400001
aF1127.0780501548661
aF0.0
aF27165.556125029438
aF767.60698522318455
aF348.06822137099999
aF161.89088554338815
aF0.0
aF241.25452352257804
asS'Bacteria.Bacteroidetes.Bacteroidia.Bacteroidales.Bacteroidaceae.Bacteroides'
p41
(lp42
F48750.172628122571
aF253557.82722000001
aF18283.938814541165
aF22768.670309689442
aF5143.2770022059012
aF140627.32272900001
aF38997.484033251611
aF19202.579888540447
aF180739.70690827689
aF185571.99497181855
aF71258.134490199998
aF22834.788937365734
aF7150.6484062500285
aF27982.473610817826
aF91881.756011442252
aF186442.15669138313
aF32660.781841100001
aF41829.600663599995
aF88192.152548647864
aF78953.107960774199
aF3699.8972250784486
aF98256.254738400006
aF4508.3122006194644
aF19704.988176978168
aF46899.026140402726
aF20533.48685475644
aF66945.121243800008
aF28978.468512250474
aF8118.9474713883883
aF63691.194209888548
asS'Bacteria.Firmicutes.Clostridia.Clostridiales.Ruminococcaceae.Acetivibrio'
p43
(lp44
F0.0
aF0.0
aF0.0
aF0.0
aF0.0
aF0.0
aF0.0
aF0.0
aF0.0
aF0.0
aF0.0
aF0.0
aF0.0
aF0.0
aF0.0
aF0.0
aF0.0
aF0.0
aF0.0
aF0.0
aF0.0
aF0.0
aF0.0
aF0.0
aF0.0
aF0.0
aF0.0
aF0.0
aF0.0
aF0.0
asS'Bacteria.Firmicutes.Bacilli.Bacillales.Bacillaceae.Bacillus'
p45
(lp46
F0.0
aF0.0
aF0.0
aF0.0
aF0.0
aF0.0
aF0.0
aF0.0
aF0.0
aF0.0
aF0.0
aF0.0
aF0.0
aF0.0
aF0.0
aF0.0
aF0.0
aF0.0
aF0.0
aF0.0
aF0.0
aF0.0
aF0.0
aF0.0
aF0.0
aF0.0
aF0.0
aF0.0
aF0.0
aF0.0
asS'Bacteria.Bacteroidetes.Flavobacteria'
p47
(lp48
F0.0
aF0.0
aF0.0
aF0.0
aF0.0
aF0.0
aF0.0
aF0.0
aF0.0
aF0.0
aF0.0
aF0.0
aF0.0
aF0.0
aF0.0
aF0.0
aF0.0
aF0.0
aF0.0
aF0.0
aF0.0
aF0.0
aF0.0
aF0.0
aF0.0
aF0.0
aF0.0
aF0.0
aF0.0
aF0.0
asS'Bacteria.Bacteroidetes'
p49
(lp50
F176771.16420352651
aF459210.26257800002
aF111974.1873801597
aF276980.87431677699
aF88660.298799978598
aF496060.65110700001
aF161505.7093092252
aF146437.99472273214
aF401256.1060713951
aF507591.14205638348
aF192733.18872000001
aF117267.10334812767
aF53690.461762217245
aF169288.98625755269
aF210015.442312211
aF299162.44983396924
aF119798.23455199999
aF117549.47268600001
aF176751.00843443899
aF109487.45910537745
aF7810.8941418244985
aF214404.85216100002
aF17047.055508569843
aF49881.770070893901
aF235776.52485916155
aF76376.89502968936
aF125884.673396
aF65808.644973261238
aF36192.898366483183
aF118214.7165262934
asS'Bacteria.Firmicutes.Clostridia.Clostridiales.Veillonellaceae.Anaerovibrio'
p51
(lp52
F0.0
aF0.0
aF0.0
aF0.0
aF0.0
aF0.0
aF0.0
aF0.0
aF0.0
aF0.0
aF0.0
aF0.0
aF0.0
aF0.0
aF0.0
aF0.0
aF0.0
aF0.0
aF0.0
aF0.0
aF0.0
aF0.0
aF0.0
aF0.0
aF0.0
aF0.0
aF0.0
aF0.0
aF0.0
aF0.0
asS'Bacteria.Firmicutes.Clostridia.Clostridiales.Ruminococcaceae.Papillibacter'
p53
(lp54
F414.30741610226528
aF200.440970134
aF119.50286806852372
aF569.21675774123594
aF244.91795248551233
aF148.65467519000001
aF677.3756531830702
aF1026.0920551173529
aF348.91835310560447
aF386.80978628777768
aF0.0
aF90.975254730686601
aF0.0
aF0.0
aF0.0
aF0.0
aF0.0
aF0.0
aF0.0
aF436.20501635776895
aF0.0
aF0.0
aF281.76951253871653
aF0.0
aF256.2788313685233
aF0.0
aF116.022740457
aF0.0
aF97.81864423360588
aF0.0
asS'Bacteria.Firmicutes.Bacilli.Bacillales.Planococcaceae'
p55
(lp56
F0.0
aF0.0
aF0.0
aF0.0
aF489.83590497203886
aF0.0
aF0.0
aF0.0
aF0.0
aF0.0
aF0.0
aF0.0
aF0.0
aF0.0
aF0.0
aF0.0
aF0.0
aF0.0
aF0.0
aF0.0
aF0.0
aF0.0
aF0.0
aF0.0
aF0.0
aF0.0
aF0.0
aF0.0
aF0.0
aF0.0
asS'Bacteria.Firmicutes.Clostridia.Clostridiales.Ruminococcaceae'
p57
(lp58
F65598.674216258689
aF33874.523952700001
aF40869.980879533177
aF60564.663023693902
aF50942.9341170677
aF14716.8128438
aF70447.067931051308
aF93960.715332747568
aF43789.253314774876
aF46320.471907898325
aF77982.646420800011
aF65502.183406142358
aF131620.40964761493
aF79366.660027903243
aF68718.288109395464
aF114290.69970389371
aF134300.12610300002
aF170280.83896199998
aF123579.02456866989
aF109705.56161359538
aF80986.639259998236
aF42153.146323000001
aF93547.478162913918
aF96723.341965931759
aF60994.361865726554
aF72730.761849912989
aF42464.323007300001
aF56742.75538285551
aF76591.998434972513
aF66586.248492183498
asS'Bacteria.Firmicutes.Bacilli.Lactobacillales.Lactobacillaceae.Lactobacillus'
p59
(lp60
F4557.38157713092
aF6414.1110443000007
aF258484.70363316438
aF12295.081967212296
aF8082.2924320421907
aF64218.8196819
aF45190.632862381404
aF14072.119613003691
aF8548.4996510858091
aF7736.1957257555532
aF61388.286334100005
aF7459.9708879151021
aF19633.983759491508
aF5178.2513443498465
aF69269.799249913238
aF25300.99459086722
aF11979.823455200001
aF28202.393648499998
aF19985.331866506269
aF18102.508178884458
aF9455.2929085249198
aF148445.79226700001
aF20287.404902747578
aF2589.7984461162723
aF10379.292670445711
aF18902.322011132797
aF133890.24248799999
aF6394.6899789558292
aF15064.07121200111
aF4101.3268998828253
asS'Bacteria.Deferribacteres'
p61
(lp62
F13948.349675428261
aF16636.600521100001
aF13862.332695952755
aF9562.8415300595643
aF16899.338721490207
aF1783.8561022700001
aF58931.681826963111
aF42949.281735559191
aF13607.81577114559
aF21661.348032087531
aF14316.70282
aF13919.213973845255
aF32844.503696486528
aF21907.986456918592
aF53165.673946634073
aF14220.903856190467
aF24211.8537201
aF20618.556700999998
aF15951.595159530696
aF16793.893129777109
aF22816.032887922061
aF8339.6512509499989
aF30994.646379308833
aF6868.5958788392527
aF9866.7350076866442
aF9978.8908079064004
aF4408.8641373700002
aF15622.470454950964
aF26997.945808460423
aF30880.579010845955
asS'Bacteria.Firmicutes.Erysipelotrichi.Erysipelotrichales'
p63
(lp64
F0.0
aF0.0
aF478.01147227509546
aF0.0
aF0.0
aF148.65467519000001
aF0.0
aF0.0
aF0.0
aF580.21467943166647
aF0.0
aF0.0
aF0.0
aF0.0
aF0.0
aF261.7344268014877
aF0.0
aF0.0
aF0.0
aF0.0
aF0.0
aF0.0
aF0.0
aF0.0
aF0.0
aF0.0
aF0.0
aF242.83632831508226
aF0.0
aF0.0
asS'Bacteria.Actinobacteria.Actinobacteria.Actinomycetales.Corynebacteriaceae'
p65
(lp66
F138.10247203375499
aF0.0
aF0.0
aF113.84335154844722
aF0.0
aF0.0
aF193.53590090930578
aF0.0
aF0.0
aF0.0
aF0.0
aF272.92576419225981
aF0.0
aF0.0
aF0.0
aF0.0
aF0.0
aF0.0
aF0.0
aF218.10250817888448
aF0.0
aF0.0
aF0.0
aF0.0
aF128.1394156837612
aF0.0
aF116.022740457
aF80.945442771594045
aF195.63728846761182
aF241.25452352257804
asS'Bacteria.Deinococcus_Thermus.Deinococci'
p67
(lp68
F0.0
aF0.0
aF0.0
aF0.0
aF0.0
aF0.0
aF0.0
aF0.0
aF0.0
aF0.0
aF0.0
aF0.0
aF0.0
aF0.0
aF0.0
aF0.0
aF0.0
aF0.0
aF0.0
aF0.0
aF0.0
aF0.0
aF0.0
aF0.0
aF0.0
aF0.0
aF0.0
aF0.0
aF0.0
aF0.0
asS'Bacteria.Firmicutes.Bacilli.Bacillales.Planococcaceae.Kurthia'
p69
(lp70
F0.0
aF0.0
aF0.0
aF0.0
aF0.0
aF0.0
aF0.0
aF0.0
aF0.0
aF0.0
aF0.0
aF0.0
aF0.0
aF0.0
aF0.0
aF0.0
aF0.0
aF0.0
aF0.0
aF0.0
aF0.0
aF0.0
aF0.0
aF0.0
aF0.0
aF0.0
aF0.0
aF0.0
aF0.0
aF0.0
asS'Bacteria.Firmicutes.Clostridia.Clostridiales.Ruminococcaceae.Butyricicoccus'
p71
(lp72
F1381.0247203375502
aF801.76388053700009
aF836.52007648166727
aF1593.806921678261
aF489.83590497203886
aF445.964025569
aF4161.0218695565745
aF3811.1990618601667
aF1919.0509420823255
aF2224.1562711537208
aF976.138828633
aF2820.2328966566852
aF1575.5665979906919
aF1692.8898625755266
aF1323.6267372626749
aF3577.037166294675
aF0.0
aF3436.4261168400003
aF1100.1100109997028
aF3707.7426390440401
aF6372.0452209678842
aF1061.4101592100001
aF8593.9701324283542
aF4278.7974327229804
aF1025.1153254780968
aF1439.2630972890952
aF696.13644274299998
aF1537.9634126641881
aF3325.8339039444004
aF2653.799758745356
asS'Bacteria.Firmicutes.Clostridia.Clostridiales.Syntrophomonadaceae.Syntrophomonas'
p73
(lp74
F0.0
aF0.0
aF0.0
aF0.0
aF0.0
aF0.0
aF0.0
aF0.0
aF0.0
aF0.0
aF0.0
aF0.0
aF0.0
aF0.0
aF0.0
aF0.0
aF0.0
aF0.0
aF0.0
aF0.0
aF0.0
aF0.0
aF0.0
aF0.0
aF0.0
aF0.0
aF0.0
aF0.0
aF0.0
aF0.0
asS'Bacteria.Bacteroidetes.Flavobacteria.Flavobacteriales.Flavobacteriaceae'
p75
(lp76
F0.0
aF0.0
aF0.0
aF0.0
aF0.0
aF0.0
aF0.0
aF0.0
aF0.0
aF0.0
aF0.0
aF0.0
aF0.0
aF0.0
aF0.0
aF0.0
aF0.0
aF0.0
aF0.0
aF0.0
aF0.0
aF0.0
aF0.0
aF0.0
aF0.0
aF0.0
aF0.0
aF0.0
aF0.0
aF0.0
asS'Bacteria.Deferribacteres.Deferribacteres.Deferribacterales.Deferribacteraceae.Geovibrio'
p77
(lp78
F0.0
aF0.0
aF0.0
aF0.0
aF0.0
aF0.0
aF0.0
aF0.0
aF0.0
aF0.0
aF0.0
aF0.0
aF0.0
aF0.0
aF0.0
aF0.0
aF0.0
aF0.0
aF0.0
aF0.0
aF0.0
aF0.0
aF0.0
aF0.0
aF0.0
aF0.0
aF0.0
aF0.0
aF0.0
aF0.0
asS'Bacteria.Bacteroidetes.Bacteroidia.Bacteroidales.Porphyromonadaceae.Petrimonas'
p79
(lp80
F0.0
aF0.0
aF0.0
aF0.0
aF0.0
aF0.0
aF0.0
aF0.0
aF0.0
aF0.0
aF0.0
aF0.0
aF0.0
aF0.0
aF0.0
aF0.0
aF0.0
aF0.0
aF0.0
aF0.0
aF0.0
aF0.0
aF0.0
aF0.0
aF0.0
aF0.0
aF0.0
aF0.0
aF0.0
aF0.0
asS'Bacteria.Firmicutes.Bacilli.Lactobacillales.Carnobacteriaceae'
p81
(lp82
F0.0
aF0.0
aF0.0
aF0.0
aF0.0
aF0.0
aF0.0
aF0.0
aF0.0
aF0.0
aF108.45986984800001
aF0.0
aF0.0
aF0.0
aF0.0
aF0.0
aF0.0
aF0.0
aF0.0
aF0.0
aF0.0
aF0.0
aF0.0
aF0.0
aF0.0
aF0.0
aF0.0
aF0.0
aF0.0
aF0.0
asS'Bacteria.Proteobacteria.Gammaproteobacteria.Enterobacteriales'
p83
(lp84
F0.0
aF0.0
aF1792.5430210328589
aF341.53005464534164
aF244.91795248551233
aF0.0
aF0.0
aF0.0
aF0.0
aF96.702446571944421
aF108.45986984800001
aF818.77729257677947
aF0.0
aF497.90878311133156
aF551.51114052478056
aF174.48961786732468
aF126.10340479200001
aF236.99490460999999
aF183.35166850061725
aF436.20501635776895
aF0.0
aF454.89006823400001
aF1127.0780501548661
aF0.0
aF30112.762685819001
aF863.55785837645772
aF348.06822137099999
aF161.89088554338815
aF0.0
aF241.25452352257804
asS'Bacteria.Bacteroidetes.Flavobacteria.Flavobacteriales'
p85
(lp86
F0.0
aF0.0
aF0.0
aF0.0
aF0.0
aF0.0
aF0.0
aF0.0
aF0.0
aF0.0
aF0.0
aF0.0
aF0.0
aF0.0
aF0.0
aF0.0
aF0.0
aF0.0
aF0.0
aF0.0
aF0.0
aF0.0
aF0.0
aF0.0
aF0.0
aF0.0
aF0.0
aF0.0
aF0.0
aF0.0
asS'Bacteria.Firmicutes.Clostridia.Thermoanaerobacterales'
p87
(lp88
F0.0
aF0.0
aF0.0
aF0.0
aF0.0
aF0.0
aF0.0
aF0.0
aF0.0
aF0.0
aF0.0
aF0.0
aF0.0
aF0.0
aF0.0
aF0.0
aF0.0
aF0.0
aF0.0
aF0.0
aF0.0
aF0.0
aF0.0
aF0.0
aF0.0
aF0.0
aF0.0
aF0.0
aF0.0
aF0.0
asS'Bacteria.Proteobacteria.Alphaproteobacteria.Rhizobiales'
p89
(lp90
F0.0
aF0.0
aF0.0
aF0.0
aF0.0
aF0.0
aF0.0
aF0.0
aF0.0
aF0.0
aF0.0
aF0.0
aF0.0
aF0.0
aF0.0
aF0.0
aF0.0
aF0.0
aF0.0
aF0.0
aF0.0
aF0.0
aF0.0
aF0.0
aF0.0
aF0.0
aF0.0
aF0.0
aF0.0
aF0.0
asS'Bacteria.Actinobacteria.Actinobacteria.Coriobacteriales.Coriobacteriaceae.Slackia'
p91
(lp92
F138.10247203375499
aF601.32291040299992
aF358.50860420657176
aF227.68670309689443
aF0.0
aF297.30935037899997
aF193.53590090930578
aF0.0
aF174.45917655230195
aF386.80978628777768
aF216.91973969600002
aF90.975254730686601
aF0.0
aF99.581756622166296
aF441.20891242022464
aF1570.4065608069236
aF126.10340479200001
aF592.48726152400002
aF550.05500550085151
aF218.10250817888448
aF0.0
aF303.26004548899999
aF0.0
aF0.0
aF0.0
aF95.950873152973074
aF464.09096182899998
aF0.0
aF0.0
aF241.25452352257804
asS'Bacteria.Proteobacteria.Alphaproteobacteria.Rhodospirillales.Acetobacteraceae'
p93
(lp94
F0.0
aF0.0
aF0.0
aF0.0
aF0.0
aF0.0
aF0.0
aF0.0
aF0.0
aF0.0
aF0.0
aF0.0
aF0.0
aF0.0
aF0.0
aF0.0
aF0.0
aF0.0
aF0.0
aF0.0
aF0.0
aF0.0
aF0.0
aF0.0
aF0.0
aF0.0
aF0.0
aF0.0
aF0.0
aF0.0
asS'Bacteria.Proteobacteria.Deltaproteobacteria.Desulfovibrionales'
p95
(lp96
F6767.0211296750003
aF4409.7013429500003
aF2868.0688336505732
aF8196.7213114781971
aF3673.7692872928274
aF2675.7841534100003
aF5999.6129281994799
aF4690.7065376678975
aF4361.479413822557
aF9380.1373174696018
aF5965.2928416499999
aF4730.7132459925033
aF8847.4124348546175
aF9460.2668791102988
aF6728.4359144069258
aF5321.9333449679216
aF6935.6872635599993
aF5095.3904491100002
aF4950.4950495036637
aF3489.6401308661571
aF2672.1479958894352
aF5761.9408642900007
aF3522.1189067314558
aF6080.3963517621278
aF6022.5525371638005
aF5661.10151601911
aF2320.4548091400002
aF5989.962765097358
aF3130.1966154717879
aF6031.3630880594465
asS'Bacteria.Proteobacteria.Betaproteobacteria.Burkholderiales.Oxalobacteraceae'
p97
(lp98
F0.0
aF0.0
aF0.0
aF0.0
aF0.0
aF0.0
aF0.0
aF0.0
aF0.0
aF0.0
aF0.0
aF0.0
aF0.0
aF0.0
aF0.0
aF0.0
aF0.0
aF0.0
aF0.0
aF0.0
aF0.0
aF0.0
aF0.0
aF0.0
aF384.41824705228447
aF0.0
aF0.0
aF0.0
aF0.0
aF0.0
asS'Bacteria.Proteobacteria.Epsilonproteobacteria'
p99
(lp100
F35216.130368752565
aF34676.287833199996
aF42901.529636671061
aF48155.737704948166
aF8817.0462894987286
aF11297.755314399999
aF61350.880588316933
aF20521.841102347054
aF33496.161898166043
aF43709.505850474845
aF38720.173535800001
aF30021.834061148584
aF20118.773482027282
aF25094.60266882311
aF53937.78954337896
aF33240.272203829991
aF58890.290037800005
aF44910.534423500001
aF15584.891822487454
aF38604.143947665558
aF42548.818088387146
aF27899.924184999996
aF86503.240349370972
aF38509.176894476797
aF23065.094823157087
aF13529.073114525496
aF22276.366167799999
aF46219.8478225953
aF31791.059375974419
aF45838.359469219773
asS'Bacteria.Proteobacteria.Gammaproteobacteria.Thiotrichales'
p101
(lp102
F0.0
aF0.0
aF0.0
aF0.0
aF0.0
aF0.0
aF0.0
aF0.0
aF0.0
aF0.0
aF0.0
aF0.0
aF0.0
aF0.0
aF0.0
aF0.0
aF0.0
aF0.0
aF0.0
aF0.0
aF0.0
aF0.0
aF0.0
aF0.0
aF0.0
aF0.0
aF0.0
aF0.0
aF0.0
aF482.50904704515608
asS'Bacteria.Firmicutes.Clostridia.Clostridiales.Ruminococcaceae.Anaerofilum'
p103
(lp104
F0.0
aF0.0
aF0.0
aF0.0
aF0.0
aF0.0
aF0.0
aF0.0
aF0.0
aF0.0
aF0.0
aF0.0
aF0.0
aF0.0
aF0.0
aF0.0
aF0.0
aF0.0
aF0.0
aF0.0
aF0.0
aF0.0
aF0.0
aF0.0
aF0.0
aF0.0
aF0.0
aF0.0
aF0.0
aF0.0
asS'Bacteria.Cyanobacteria'
p105
(lp106
F0.0
aF0.0
aF0.0
aF0.0
aF0.0
aF0.0
aF0.0
aF0.0
aF0.0
aF0.0
aF0.0
aF0.0
aF0.0
aF0.0
aF0.0
aF0.0
aF0.0
aF0.0
aF0.0
aF0.0
aF0.0
aF0.0
aF0.0
aF0.0
aF0.0
aF0.0
aF0.0
aF0.0
aF0.0
aF0.0
asS'Bacteria.Firmicutes.Bacilli.Lactobacillales.Enterococcaceae.Tetragenococcus'
p107
(lp108
F0.0
aF0.0
aF0.0
aF0.0
aF0.0
aF0.0
aF0.0
aF0.0
aF0.0
aF0.0
aF0.0
aF0.0
aF0.0
aF0.0
aF0.0
aF0.0
aF0.0
aF0.0
aF0.0
aF0.0
aF0.0
aF0.0
aF0.0
aF0.0
aF0.0
aF0.0
aF0.0
aF0.0
aF0.0
aF0.0
asS'Bacteria.Proteobacteria.Betaproteobacteria.Burkholderiales.Burkholderiaceae'
p109
(lp110
F0.0
aF0.0
aF0.0
aF0.0
aF0.0
aF0.0
aF0.0
aF0.0
aF0.0
aF0.0
aF0.0
aF0.0
aF0.0
aF0.0
aF0.0
aF0.0
aF0.0
aF0.0
aF0.0
aF0.0
aF0.0
aF0.0
aF0.0
aF0.0
aF0.0
aF0.0
aF0.0
aF0.0
aF0.0
aF0.0
asS'Bacteria.Firmicutes.Bacilli.Lactobacillales.Aerococcaceae.Facklamia'
p111
(lp112
F0.0
aF0.0
aF0.0
aF0.0
aF0.0
aF0.0
aF0.0
aF0.0
aF0.0
aF0.0
aF0.0
aF0.0
aF0.0
aF0.0
aF0.0
aF0.0
aF0.0
aF0.0
aF0.0
aF0.0
aF0.0
aF0.0
aF0.0
aF0.0
aF0.0
aF0.0
aF0.0
aF0.0
aF0.0
aF0.0
asS'Bacteria.Firmicutes.Bacilli.Lactobacillales.Leuconostocaceae'
p113
(lp114
F0.0
aF0.0
aF0.0
aF0.0
aF0.0
aF0.0
aF0.0
aF0.0
aF0.0
aF0.0
aF0.0
aF0.0
aF0.0
aF0.0
aF0.0
aF0.0
aF0.0
aF0.0
aF0.0
aF0.0
aF0.0
aF0.0
aF0.0
aF0.0
aF0.0
aF0.0
aF0.0
aF0.0
aF0.0
aF0.0
asS'Bacteria.Deferribacteres.Deferribacteres.Deferribacterales.Deferribacteraceae'
p115
(lp116
F13948.349675428261
aF16636.600521100001
aF13862.332695952755
aF9562.8415300595643
aF16899.338721490207
aF1783.8561022700001
aF58931.681826963111
aF42949.281735559191
aF13607.81577114559
aF21661.348032087531
aF14316.70282
aF13919.213973845255
aF32844.503696486528
aF21907.986456918592
aF53165.673946634073
aF14220.903856190467
aF24211.8537201
aF20618.556700999998
aF15951.595159530696
aF16793.893129777109
aF22816.032887922061
aF8339.6512509499989
aF30994.646379308833
aF6868.5958788392527
aF9866.7350076866442
aF9978.8908079064004
aF4408.8641373700002
aF15622.470454950964
aF26997.945808460423
aF30880.579010845955
asS'Archaea.Crenarchaeota.Thermoprotei.Desulfurococcales'
p117
(lp118
F0.0
aF0.0
aF0.0
aF0.0
aF0.0
aF0.0
aF0.0
aF0.0
aF0.0
aF0.0
aF0.0
aF0.0
aF0.0
aF0.0
aF0.0
aF0.0
aF0.0
aF0.0
aF0.0
aF0.0
aF0.0
aF0.0
aF0.0
aF0.0
aF0.0
aF0.0
aF0.0
aF0.0
aF0.0
aF0.0
asS'Bacteria.Firmicutes.Clostridia.Clostridiales.Peptostreptococcaceae.Tepidibacter'
p119
(lp120
F0.0
aF0.0
aF0.0
aF0.0
aF0.0
aF0.0
aF0.0
aF0.0
aF0.0
aF0.0
aF0.0
aF0.0
aF0.0
aF0.0
aF0.0
aF0.0
aF0.0
aF0.0
aF0.0
aF0.0
aF0.0
aF0.0
aF0.0
aF0.0
aF0.0
aF0.0
aF0.0
aF0.0
aF0.0
aF0.0
asS'Bacteria.Firmicutes.Bacilli.Lactobacillales.Aerococcaceae.Globicatella'
p121
(lp122
F0.0
aF0.0
aF0.0
aF0.0
aF0.0
aF0.0
aF0.0
aF0.0
aF0.0
aF0.0
aF0.0
aF0.0
aF0.0
aF0.0
aF0.0
aF0.0
aF0.0
aF0.0
aF0.0
aF0.0
aF0.0
aF0.0
aF0.0
aF0.0
aF0.0
aF0.0
aF0.0
aF0.0
aF0.0
aF0.0
asS'Bacteria.Firmicutes.Bacilli.Bacillales.Paenibacillaceae'
p123
(lp124
F0.0
aF0.0
aF0.0
aF0.0
aF0.0
aF0.0
aF0.0
aF0.0
aF0.0
aF0.0
aF0.0
aF0.0
aF0.0
aF0.0
aF0.0
aF0.0
aF0.0
aF0.0
aF0.0
aF0.0
aF0.0
aF0.0
aF0.0
aF0.0
aF0.0
aF0.0
aF0.0
aF0.0
aF0.0
aF0.0
asS'Bacteria.Proteobacteria.Deltaproteobacteria.Desulfobacterales.Desulfobacteraceae.Desulfocella'
p125
(lp126
F0.0
aF0.0
aF0.0
aF0.0
aF0.0
aF0.0
aF0.0
aF0.0
aF0.0
aF0.0
aF0.0
aF0.0
aF0.0
aF0.0
aF0.0
aF0.0
aF0.0
aF0.0
aF0.0
aF0.0
aF0.0
aF0.0
aF0.0
aF0.0
aF0.0
aF0.0
aF0.0
aF0.0
aF0.0
aF0.0
asS'Bacteria.Actinobacteria.Actinobacteria.Bifidobacteriales.Bifidobacteriaceae.Metascardovia'
p127
(lp128
F0.0
aF2204.8506714800001
aF0.0
aF455.37340619278871
aF4653.441097234876
aF1040.58272633
aF193.53590090930578
aF879.50747581273072
aF174.45917655230195
aF0.0
aF0.0
aF0.0
aF0.0
aF0.0
aF0.0
aF0.0
aF126.10340479200001
aF236.99490460999999
aF0.0
aF0.0
aF0.0
aF0.0
aF0.0
aF0.0
aF0.0
aF0.0
aF0.0
aF0.0
aF0.0
aF0.0
asS'Bacteria.Deinococcus_Thermus.Deinococci.Thermales'
p129
(lp130
F0.0
aF0.0
aF0.0
aF0.0
aF0.0
aF0.0
aF0.0
aF0.0
aF0.0
aF0.0
aF0.0
aF0.0
aF0.0
aF0.0
aF0.0
aF0.0
aF0.0
aF0.0
aF0.0
aF0.0
aF0.0
aF0.0
aF0.0
aF0.0
aF0.0
aF0.0
aF0.0
aF0.0
aF0.0
aF0.0
asS'Bacteria.Proteobacteria.Alphaproteobacteria.Sphingomonadales.Sphingomonadaceae.Sphingomonas'
p131
(lp132
F0.0
aF0.0
aF0.0
aF0.0
aF0.0
aF0.0
aF96.767950454752892
aF0.0
aF0.0
aF0.0
aF0.0
aF0.0
aF0.0
aF0.0
aF0.0
aF0.0
aF0.0
aF0.0
aF0.0
aF0.0
aF0.0
aF0.0
aF0.0
aF0.0
aF0.0
aF0.0
aF0.0
aF0.0
aF0.0
aF0.0
asS'Bacteria.Firmicutes.Clostridia.Clostridiales.Ruminococcaceae.Oscillibacter'
p133
(lp134
F11324.402706825927
aF3808.3784325499996
aF3943.5946462682873
aF11042.805100144373
aF8817.0462894987286
aF743.27337594799997
aF7064.060383201162
aF9088.2439167365519
aF4361.479413822557
aF5028.5272217371066
aF9110.6290672499999
aF6732.1688500724085
aF34298.872863893397
aF22804.222266447974
aF11030.222810455594
aF8549.9912755199366
aF10340.4791929
aF9598.2936366899994
aF7334.0667400046859
aF5888.7677208328851
aF6372.0452209678842
aF5761.9408642900007
aF7748.6615948172057
aF6192.996284204577
aF14607.893387982806
aF11706.00652468732
aF12994.546931199999
aF8903.9987048763451
aF6358.211875184882
aF9650.1809408931131
asS'Bacteria.Firmicutes.Clostridia.Clostridiales.Lachnospiraceae.Parasporobacterium'
p135
(lp136
F0.0
aF0.0
aF0.0
aF0.0
aF0.0
aF0.0
aF0.0
aF0.0
aF0.0
aF0.0
aF0.0
aF0.0
aF0.0
aF0.0
aF0.0
aF0.0
aF0.0
aF0.0
aF0.0
aF0.0
aF0.0
aF0.0
aF0.0
aF0.0
aF0.0
aF0.0
aF0.0
aF0.0
aF0.0
aF0.0
asS'Bacteria.Bacteroidetes.Bacteroidia.Bacteroidales.Rikenellaceae'
p137
(lp138
F27896.699350956551
aF1803.96873121
aF47203.63288722196
aF15710.382513615707
aF29145.236345867248
aF4608.2949308799998
aF10063.866847335905
aF25945.470536463054
aF8374.0404745265041
aF1353.8342520092233
aF39587.852494600003
aF11462.882096054911
aF31632.529390347554
aF44214.299940250232
aF20075.005515067198
aF24515.79131041369
aF45271.122320300005
aF9479.7961843800003
aF22185.551888565686
aF14176.663031662536
aF2672.1479958894352
aF6368.4609552700003
aF5494.5054945074726
aF10922.19344672738
aF47924.14146592086
aF13816.925734047327
aF8121.5918320000001
aF14732.070584384297
aF23672.111904516023
aF2653.799758745356
asS'Bacteria.Proteobacteria.Gammaproteobacteria.Pseudomonadales.Pseudomonadaceae'
p139
(lp140
F0.0
aF0.0
aF0.0
aF0.0
aF0.0
aF0.0
aF0.0
aF0.0
aF0.0
aF0.0
aF108.45986984800001
aF0.0
aF0.0
aF0.0
aF0.0
aF0.0
aF0.0
aF0.0
aF0.0
aF0.0
aF0.0
aF0.0
aF0.0
aF0.0
aF256.2788313685233
aF0.0
aF0.0
aF0.0
aF0.0
aF0.0
asS'Bacteria.Proteobacteria.Gammaproteobacteria.Pseudomonadales.Pseudomonadaceae.Pseudomonas'
p141
(lp142
F0.0
aF0.0
aF0.0
aF0.0
aF0.0
aF0.0
aF0.0
aF0.0
aF0.0
aF0.0
aF0.0
aF0.0
aF0.0
aF0.0
aF0.0
aF0.0
aF0.0
aF0.0
aF0.0
aF0.0
aF0.0
aF0.0
aF0.0
aF0.0
aF0.0
aF0.0
aF0.0
aF0.0
aF0.0
aF0.0
asS'Bacteria.Chloroflexi.Thermomicrobia.Sphaerobacterales'
p143
(lp144
F0.0
aF0.0
aF0.0
aF0.0
aF0.0
aF0.0
aF0.0
aF0.0
aF0.0
aF0.0
aF0.0
aF0.0
aF0.0
aF0.0
aF0.0
aF0.0
aF0.0
aF0.0
aF0.0
aF0.0
aF0.0
aF0.0
aF0.0
aF0.0
aF0.0
aF0.0
aF0.0
aF0.0
aF0.0
aF0.0
asS'Bacteria.Firmicutes.Bacilli.Bacillales.Thermoactinomycetaceae.Planifilum'
p145
(lp146
F0.0
aF0.0
aF0.0
aF0.0
aF0.0
aF0.0
aF0.0
aF0.0
aF0.0
aF0.0
aF0.0
aF0.0
aF0.0
aF0.0
aF0.0
aF0.0
aF0.0
aF0.0
aF0.0
aF0.0
aF0.0
aF0.0
aF0.0
aF0.0
aF0.0
aF0.0
aF0.0
aF0.0
aF0.0
aF0.0
asS'Bacteria.Bacteroidetes.Sphingobacteria.Sphingobacteriales.Chitinophagaceae.Sediminibacterium'
p147
(lp148
F0.0
aF0.0
aF0.0
aF0.0
aF0.0
aF0.0
aF0.0
aF0.0
aF0.0
aF0.0
aF0.0
aF0.0
aF0.0
aF0.0
aF0.0
aF0.0
aF0.0
aF0.0
aF0.0
aF0.0
aF0.0
aF0.0
aF0.0
aF0.0
aF0.0
aF0.0
aF0.0
aF0.0
aF0.0
aF0.0
asS'Bacteria.Firmicutes.Clostridia.Thermoanaerobacterales.Thermoanaerobacteraceae.Caldanaerobius'
p149
(lp150
F0.0
aF0.0
aF0.0
aF0.0
aF0.0
aF0.0
aF0.0
aF0.0
aF0.0
aF0.0
aF0.0
aF0.0
aF0.0
aF0.0
aF0.0
aF0.0
aF0.0
aF0.0
aF0.0
aF0.0
aF0.0
aF0.0
aF0.0
aF0.0
aF0.0
aF0.0
aF0.0
aF0.0
aF0.0
aF0.0
asS'Bacteria.Proteobacteria.Deltaproteobacteria.Desulfobacterales.Desulfobulbaceae'
p151
(lp152
F0.0
aF0.0
aF0.0
aF0.0
aF0.0
aF0.0
aF0.0
aF0.0
aF0.0
aF0.0
aF0.0
aF0.0
aF0.0
aF0.0
aF0.0
aF0.0
aF0.0
aF0.0
aF0.0
aF0.0
aF0.0
aF0.0
aF0.0
aF0.0
aF0.0
aF0.0
aF0.0
aF0.0
aF0.0
aF0.0
asS'Bacteria.Deferribacteres.Deferribacteres.Deferribacterales.Deferribacteraceae.Mucispirillum'
p153
(lp154
F13948.349675428261
aF16636.600521100001
aF13862.332695952755
aF9335.1548269626692
aF16899.338721490207
aF1783.8561022700001
aF58641.37797557265
aF42802.697156269562
aF13607.81577114559
aF21661.348032087531
aF14099.7830803
aF13919.213973845255
aF32723.306265852589
aF21907.986456918592
aF52724.465034179826
aF14133.659047262312
aF23581.336696099999
aF20263.064344099999
aF15768.243491059084
aF16575.790621559172
aF22816.032887922061
aF8339.6512509499989
aF30994.646379308833
aF6868.5958788392527
aF9738.5955920018823
aF9882.9399347491253
aF4408.8641373700002
aF15541.525012181268
aF26997.945808460423
aF30880.579010845955
asS'Bacteria.Actinobacteria.Actinobacteria.Bifidobacteriales.Bifidobacteriaceae'
p155
(lp156
F138.10247203375499
aF132892.36319900001
aF3704.5889101332409
aF139685.79234963967
aF26206.220916020811
aF141667.90545600001
aF23901.68376234777
aF102169.45177406645
aF17445.917655230198
aF28430.519292133646
aF108.45986984800001
aF272.92576419225981
aF0.0
aF0.0
aF882.41782484044927
aF785.2032804054644
aF5170.2395964699999
aF8294.8216613299992
aF3483.6817015007259
aF218.10250817888448
aF0.0
aF1516.3002274500002
aF140.8847562698584
aF0.0
aF768.83649410556984
aF287.85261945881922
aF116.022740457
aF0.0
aF97.81864423360588
aF0.0
asS'Bacteria.Firmicutes.Bacilli.Lactobacillales.Streptococcaceae.Streptococcus'
p157
(lp158
F1104.8197762720406
aF1002.20485067
aF1075.5258126177141
aF796.90346083813029
aF0.0
aF743.27337594799997
aF1354.7513063621402
aF1465.8457930262184
aF348.91835310560447
aF386.80978628777768
aF1843.8177874200001
aF1182.6783115031262
aF484.78972245759508
aF896.23580959939659
aF1544.2311934697857
aF2617.3442680148769
aF1513.2408574999999
aF1895.9592368799999
aF733.40667400046857
aF3925.8451472219231
aF616.64953751240773
aF2122.8203184200001
aF422.65426880857501
aF1463.7991217218096
aF2306.5094823157087
aF4989.4454039481989
aF5685.1142823999999
aF1133.2361988057178
aF1467.279663499588
aF7961.3992762360685
asS'Bacteria.Firmicutes.Clostridia.Clostridiales.Gracilibacteraceae'
p159
(lp160
F0.0
aF0.0
aF0.0
aF0.0
aF0.0
aF0.0
aF0.0
aF0.0
aF0.0
aF0.0
aF0.0
aF0.0
aF0.0
aF0.0
aF0.0
aF0.0
aF0.0
aF0.0
aF0.0
aF0.0
aF0.0
aF0.0
aF0.0
aF0.0
aF0.0
aF0.0
aF0.0
aF0.0
aF0.0
aF0.0
asS'Bacteria.Chlamydiae.Chlamydiae.Chlamydiales'
p161
(lp162
F0.0
aF0.0
aF0.0
aF0.0
aF0.0
aF0.0
aF0.0
aF0.0
aF0.0
aF0.0
aF0.0
aF0.0
aF0.0
aF0.0
aF0.0
aF0.0
aF0.0
aF0.0
aF0.0
aF0.0
aF0.0
aF0.0
aF0.0
aF0.0
aF0.0
aF0.0
aF0.0
aF0.0
aF0.0
aF0.0
asS'Archaea.Euryarchaeota.Methanopyri.Methanopyrales.Methanopyraceae.Methanopyrus'
p163
(lp164
F0.0
aF0.0
aF0.0
aF0.0
aF0.0
aF0.0
aF0.0
aF0.0
aF0.0
aF0.0
aF0.0
aF0.0
aF0.0
aF0.0
aF0.0
aF0.0
aF0.0
aF0.0
aF0.0
aF0.0
aF0.0
aF0.0
aF0.0
aF0.0
aF0.0
aF0.0
aF0.0
aF0.0
aF0.0
aF0.0
asS'Bacteria.Bacteroidetes.Bacteroidia.Bacteroidales.Porphyromonadaceae.Butyricimonas'
p165
(lp166
F0.0
aF0.0
aF0.0
aF0.0
aF0.0
aF0.0
aF0.0
aF0.0
aF0.0
aF0.0
aF0.0
aF0.0
aF0.0
aF0.0
aF0.0
aF0.0
aF4287.5157629300002
aF0.0
aF0.0
aF0.0
aF0.0
aF0.0
aF0.0
aF0.0
aF128.1394156837612
aF0.0
aF0.0
aF0.0
aF0.0
aF0.0
asS'Bacteria.Actinobacteria.Actinobacteria.Bifidobacteriales.Bifidobacteriaceae.Scardovia'
p167
(lp168
F0.0
aF0.0
aF0.0
aF0.0
aF0.0
aF0.0
aF0.0
aF0.0
aF0.0
aF0.0
aF0.0
aF0.0
aF0.0
aF0.0
aF0.0
aF0.0
aF0.0
aF0.0
aF0.0
aF0.0
aF0.0
aF0.0
aF0.0
aF0.0
aF0.0
aF0.0
aF0.0
aF0.0
aF0.0
aF0.0
asS'Bacteria.Proteobacteria.Betaproteobacteria.Burkholderiales.Oxalobacteraceae.Oxalobacter'
p169
(lp170
F0.0
aF0.0
aF0.0
aF0.0
aF0.0
aF0.0
aF0.0
aF0.0
aF0.0
aF0.0
aF0.0
aF0.0
aF0.0
aF0.0
aF0.0
aF0.0
aF0.0
aF0.0
aF0.0
aF0.0
aF0.0
aF0.0
aF0.0
aF0.0
aF0.0
aF0.0
aF0.0
aF0.0
aF0.0
aF0.0
asS'Bacteria.Proteobacteria.Gammaproteobacteria.Pseudomonadales'
p171
(lp172
F0.0
aF0.0
aF0.0
aF0.0
aF0.0
aF0.0
aF0.0
aF0.0
aF0.0
aF0.0
aF108.45986984800001
aF0.0
aF0.0
aF0.0
aF0.0
aF0.0
aF0.0
aF0.0
aF0.0
aF0.0
aF0.0
aF0.0
aF0.0
aF0.0
aF384.41824705228447
aF0.0
aF0.0
aF0.0
aF0.0
aF0.0
asS'Bacteria.Firmicutes.Bacilli.Bacillales.Thermoactinomycetaceae.Thermoflavimicrobium'
p173
(lp174
F0.0
aF0.0
aF0.0
aF0.0
aF0.0
aF0.0
aF0.0
aF0.0
aF0.0
aF0.0
aF0.0
aF0.0
aF0.0
aF0.0
aF0.0
aF0.0
aF0.0
aF0.0
aF0.0
aF0.0
aF0.0
aF0.0
aF0.0
aF0.0
aF0.0
aF0.0
aF0.0
aF0.0
aF0.0
aF0.0
asS'Bacteria.Firmicutes.Bacilli.Lactobacillales.Carnobacteriaceae.Trichococcus'
p175
(lp176
F0.0
aF0.0
aF0.0
aF0.0
aF0.0
aF0.0
aF0.0
aF0.0
aF0.0
aF0.0
aF0.0
aF0.0
aF0.0
aF0.0
aF0.0
aF0.0
aF0.0
aF0.0
aF0.0
aF0.0
aF0.0
aF0.0
aF0.0
aF0.0
aF0.0
aF0.0
aF0.0
aF0.0
aF0.0
aF0.0
asS'Bacteria.Actinobacteria.Actinobacteria.Actinomycetales'
p177
(lp178
F138.10247203375499
aF0.0
aF0.0
aF113.84335154844722
aF0.0
aF0.0
aF193.53590090930578
aF0.0
aF0.0
aF0.0
aF0.0
aF272.92576419225981
aF0.0
aF0.0
aF0.0
aF0.0
aF0.0
aF0.0
aF0.0
aF218.10250817888448
aF0.0
aF0.0
aF0.0
aF112.59993244044718
aF128.1394156837612
aF0.0
aF464.09096182799999
aF80.945442771594045
aF195.63728846761182
aF241.25452352257804
asS'Archaea.Crenarchaeota.Thermoprotei.Sulfolobales'
p179
(lp180
F0.0
aF0.0
aF0.0
aF0.0
aF0.0
aF0.0
aF0.0
aF0.0
aF0.0
aF0.0
aF0.0
aF0.0
aF0.0
aF0.0
aF0.0
aF0.0
aF0.0
aF0.0
aF0.0
aF0.0
aF0.0
aF0.0
aF0.0
aF0.0
aF0.0
aF0.0
aF0.0
aF0.0
aF0.0
aF0.0
asS'Bacteria.Actinobacteria.Actinobacteria.Actinomycetales.Microbacteriaceae.Microbacterium'
p181
(lp182
F0.0
aF0.0
aF0.0
aF0.0
aF0.0
aF0.0
aF0.0
aF0.0
aF0.0
aF0.0
aF0.0
aF0.0
aF0.0
aF0.0
aF0.0
aF0.0
aF0.0
aF0.0
aF0.0
aF0.0
aF0.0
aF0.0
aF0.0
aF0.0
aF0.0
aF0.0
aF0.0
aF0.0
aF0.0
aF0.0
asS'Bacteria.Firmicutes.Clostridia.Clostridiales.Lachnospiraceae.Dorea'
p183
(lp184
F0.0
aF0.0
aF0.0
aF0.0
aF0.0
aF0.0
aF0.0
aF0.0
aF0.0
aF0.0
aF108.45986984800001
aF0.0
aF0.0
aF0.0
aF0.0
aF0.0
aF0.0
aF0.0
aF0.0
aF0.0
aF0.0
aF0.0
aF0.0
aF0.0
aF0.0
aF0.0
aF0.0
aF0.0
aF0.0
aF0.0
asS'Bacteria.Proteobacteria.Epsilonproteobacteria.Campylobacterales.Helicobacteraceae.Helicobacter'
p185
(lp186
F17124.706532241635
aF21046.301864100002
aF30712.237093643616
aF30965.391621097631
aF3673.7692872928274
aF7284.0790842900005
aF45190.632862381404
aF11580.181764880123
aF22679.692951809262
aF34426.070979580189
aF23644.251626900001
aF23380.640465830264
aF13331.717367628968
aF14339.772953570342
aF37171.850871418435
aF26522.421915861389
aF34930.643127399999
aF33060.789192999997
aF8067.473414011155
aF26390.403489664048
aF29599.177800647602
aF13040.181956
aF53536.207382406159
aF29275.982434436191
aF16529.984623254237
aF8155.8242179982108
aF15431.024480799999
aF38449.085316504665
aF21031.008510230768
aF21230.398069962848
asS'Bacteria.Proteobacteria.Betaproteobacteria.Burkholderiales.Comamonadaceae'
p187
(lp188
F0.0
aF0.0
aF0.0
aF0.0
aF0.0
aF0.0
aF0.0
aF0.0
aF0.0
aF0.0
aF0.0
aF0.0
aF0.0
aF0.0
aF0.0
aF0.0
aF0.0
aF0.0
aF0.0
aF0.0
aF0.0
aF0.0
aF0.0
aF0.0
aF0.0
aF0.0
aF0.0
aF0.0
aF0.0
aF0.0
asS'Bacteria.Actinobacteria.Actinobacteria.Bifidobacteriales.Bifidobacteriaceae.Bifidobacterium'
p189
(lp190
F276.20494406851031
aF259771.497294
aF7409.1778202664818
aF276297.81420777633
aF46044.575067357451
aF280362.71740699996
aF47029.223921054319
aF201846.96569900919
aF34542.916957461843
aF56861.038584267291
aF216.91973969600002
aF545.85152838451961
aF0.0
aF0.0
aF1764.8356496768968
aF1570.4065608069236
aF10088.272383400001
aF16115.653513399999
aF6967.3634030114536
aF436.20501635776895
aF0.0
aF3032.60045489
aF281.76951253871653
aF0.0
aF1537.6729882071363
aF575.70523891763844
aF232.045480914
aF0.0
aF195.63728846761182
aF0.0
asS'Bacteria.Proteobacteria.Epsilonproteobacteria.Campylobacterales.Helicobacteraceae'
p191
(lp192
F35216.130368752565
aF34676.287833199996
aF42782.02676863355
aF48155.737704948166
aF7592.4565270711664
aF11297.755314399999
aF61157.344687456629
aF20521.841102347054
aF33496.161898166043
aF43709.505850474845
aF38394.7939262
aF30021.834061148584
aF20118.773482027282
aF24895.439155516568
aF53937.78954337896
aF33240.272203829991
aF58638.083228199997
aF44910.534423500001
aF15584.891822487454
aF38604.143947665558
aF42548.818088387146
aF27899.924184999996
aF86080.586080630412
aF38509.176894476797
aF23065.094823157087
aF13337.171368210948
aF22276.366167799999
aF46138.902379825609
aF31693.240731723112
aF45114.595898671054
asS'Bacteria.Firmicutes.Clostridia.Clostridiales.Heliobacteriaceae.Heliobacillus'
p193
(lp194
F0.0
aF0.0
aF0.0
aF0.0
aF0.0
aF0.0
aF0.0
aF0.0
aF0.0
aF0.0
aF0.0
aF0.0
aF0.0
aF0.0
aF0.0
aF0.0
aF0.0
aF0.0
aF0.0
aF0.0
aF0.0
aF0.0
aF0.0
aF0.0
aF0.0
aF0.0
aF0.0
aF0.0
aF0.0
aF0.0
asS'Bacteria.Firmicutes.Clostridia.Clostridiales.Ruminococcaceae.Ethanoligenens'
p195
(lp196
F0.0
aF0.0
aF0.0
aF0.0
aF0.0
aF0.0
aF0.0
aF0.0
aF0.0
aF0.0
aF0.0
aF0.0
aF0.0
aF0.0
aF0.0
aF0.0
aF0.0
aF0.0
aF0.0
aF0.0
aF0.0
aF0.0
aF0.0
aF0.0
aF0.0
aF95.950873152973074
aF0.0
aF0.0
aF0.0
aF0.0
asS'Bacteria.Firmicutes.Erysipelotrichi.Erysipelotrichales.Erysipelotrichaceae'
p197
(lp198
F0.0
aF0.0
aF478.01147227509546
aF0.0
aF0.0
aF148.65467519000001
aF0.0
aF0.0
aF0.0
aF580.21467943166647
aF0.0
aF0.0
aF0.0
aF0.0
aF0.0
aF261.7344268014877
aF0.0
aF0.0
aF0.0
aF0.0
aF0.0
aF0.0
aF0.0
aF0.0
aF0.0
aF0.0
aF0.0
aF242.83632831508226
aF0.0
aF0.0
asS'Bacteria.Firmicutes.Bacilli.Lactobacillales.Lactobacillaceae'
p199
(lp200
F5800.3038254357152
aF6814.9929845699999
aF282385.27724666899
aF15027.322404415032
aF9551.8001469552655
aF82057.3807046
aF50609.638087869971
aF18469.656992092347
aF9595.2547104016212
aF8509.8152983251039
aF69956.616052099998
aF8824.5997088764016
aF21088.352926898369
aF6771.5594503121083
aF76660.048532971516
aF27394.870005243072
aF13997.477931899999
aF29742.860528500001
aF24385.771910525084
aF20501.635768781096
aF9660.8427543687267
aF172100.07581500002
aF22823.330515691054
aF2814.9983110011708
aF11788.826242958077
aF24755.325273476457
aF150365.471632
aF6961.3080783536861
aF17216.081385129837
aF5307.5995174907121
asS'Bacteria.Firmicutes.Erysipelotrichi.Erysipelotrichales.Erysipelotrichaceae.Sharpea'
p201
(lp202
F0.0
aF0.0
aF0.0
aF0.0
aF0.0
aF0.0
aF0.0
aF0.0
aF0.0
aF0.0
aF0.0
aF0.0
aF0.0
aF0.0
aF0.0
aF0.0
aF0.0
aF0.0
aF0.0
aF0.0
aF0.0
aF0.0
aF0.0
aF0.0
aF0.0
aF0.0
aF0.0
aF0.0
aF0.0
aF0.0
asS'Bacteria.Firmicutes.Bacilli.Lactobacillales.Enterococcaceae.Pilibacter'
p203
(lp204
F0.0
aF0.0
aF0.0
aF0.0
aF0.0
aF0.0
aF0.0
aF0.0
aF0.0
aF0.0
aF0.0
aF0.0
aF0.0
aF0.0
aF0.0
aF0.0
aF0.0
aF0.0
aF0.0
aF0.0
aF0.0
aF0.0
aF0.0
aF0.0
aF0.0
aF0.0
aF0.0
aF0.0
aF0.0
aF0.0
asS'Bacteria.Firmicutes.Clostridia.Clostridiales.Peptostreptococcaceae'
p205
(lp206
F0.0
aF0.0
aF0.0
aF0.0
aF0.0
aF0.0
aF0.0
aF0.0
aF0.0
aF0.0
aF0.0
aF0.0
aF0.0
aF0.0
aF0.0
aF0.0
aF0.0
aF0.0
aF0.0
aF0.0
aF0.0
aF0.0
aF0.0
aF0.0
aF128.1394156837612
aF0.0
aF0.0
aF0.0
aF0.0
aF0.0
asS'Bacteria.Actinobacteria.Actinobacteria.Coriobacteriales.Coriobacteriaceae.Olsenella'
p207
(lp208
F0.0
aF0.0
aF0.0
aF113.84335154844722
aF0.0
aF148.65467519000001
aF96.767950454752892
aF0.0
aF0.0
aF0.0
aF0.0
aF0.0
aF0.0
aF0.0
aF0.0
aF0.0
aF0.0
aF118.497452305
aF0.0
aF0.0
aF0.0
aF0.0
aF0.0
aF0.0
aF0.0
aF0.0
aF0.0
aF0.0
aF0.0
aF0.0
asS'Bacteria.Verrucomicrobia'
p209
(lp210
F0.0
aF0.0
aF0.0
aF0.0
aF0.0
aF0.0
aF0.0
aF0.0
aF0.0
aF0.0
aF0.0
aF0.0
aF0.0
aF0.0
aF0.0
aF0.0
aF0.0
aF0.0
aF0.0
aF0.0
aF0.0
aF0.0
aF0.0
aF0.0
aF0.0
aF0.0
aF0.0
aF0.0
aF0.0
aF0.0
asS'Bacteria.Firmicutes.Clostridia.Clostridiales.Lachnospiraceae.Lachnobacterium'
p211
(lp212
F0.0
aF0.0
aF0.0
aF0.0
aF0.0
aF0.0
aF0.0
aF0.0
aF0.0
aF0.0
aF0.0
aF0.0
aF0.0
aF0.0
aF0.0
aF0.0
aF0.0
aF0.0
aF0.0
aF0.0
aF0.0
aF0.0
aF0.0
aF0.0
aF0.0
aF0.0
aF0.0
aF0.0
aF0.0
aF0.0
asS'Bacteria.Firmicutes.Bacilli.Lactobacillales.Aerococcaceae'
p213
(lp214
F0.0
aF0.0
aF0.0
aF0.0
aF0.0
aF0.0
aF0.0
aF0.0
aF0.0
aF0.0
aF0.0
aF0.0
aF0.0
aF0.0
aF0.0
aF0.0
aF0.0
aF0.0
aF0.0
aF0.0
aF0.0
aF0.0
aF0.0
aF0.0
aF0.0
aF0.0
aF0.0
aF0.0
aF0.0
aF0.0
asS'Bacteria.Firmicutes.Bacilli.Bacillales.Staphylococcaceae.Nosocomiicoccus'
p215
(lp216
F0.0
aF0.0
aF0.0
aF0.0
aF0.0
aF0.0
aF0.0
aF0.0
aF0.0
aF0.0
aF0.0
aF0.0
aF0.0
aF0.0
aF0.0
aF0.0
aF0.0
aF0.0
aF0.0
aF0.0
aF0.0
aF0.0
aF0.0
aF0.0
aF0.0
aF0.0
aF0.0
aF0.0
aF0.0
aF0.0
asS'Bacteria.Bacteroidetes.Bacteroidia.Bacteroidales.Rikenellaceae.Rikenella'
p217
(lp218
F138.10247203375499
aF200.440970134
aF119.50286806852372
aF113.84335154844722
aF2694.0974773507778
aF0.0
aF290.30385136445869
aF293.16915860424359
aF0.0
aF0.0
aF542.29934924099996
aF90.975254730686601
aF484.78972245759508
aF697.07229635486397
aF441.20891242022464
aF261.7344268014877
aF126.10340479200001
aF118.497452305
aF366.70333700023428
aF0.0
aF0.0
aF0.0
aF0.0
aF0.0
aF128.1394156837612
aF95.950873152973074
aF0.0
aF80.945442771594045
aF0.0
aF482.50904704515608
asS'Bacteria.Proteobacteria'
p219
(lp220
F44468.995994987141
aF47504.509921800003
aF58675.908221824255
aF72859.744990906198
aF15184.913054122049
aF29730.935037899999
aF76640.216760181094
aF30782.76165342057
aF43614.794138225567
aF64017.019630613198
aF47939.262472900002
aF40847.889374094892
aF30541.752514842523
aF38438.558056160786
aF70372.821530948801
aF66916.768452300763
aF83984.867591400005
aF60078.208318500001
aF32269.893656004617
aF46455.834242109398
aF45837.615621747973
aF62623.199393499999
aF93688.362919160762
aF46053.372367930708
aF64582.265504839845
aF25043.177892898271
aF39795.799976800001
aF55123.846527461639
aF35997.261077980569
aF58624.849215947434
asS'Bacteria.Actinobacteria.Actinobacteria.Actinomycetales.Microbacteriaceae'
p221
(lp222
F0.0
aF0.0
aF0.0
aF0.0
aF0.0
aF0.0
aF0.0
aF0.0
aF0.0
aF0.0
aF0.0
aF0.0
aF0.0
aF0.0
aF0.0
aF0.0
aF0.0
aF0.0
aF0.0
aF0.0
aF0.0
aF0.0
aF0.0
aF112.59993244044718
aF0.0
aF0.0
aF0.0
aF0.0
aF0.0
aF0.0
asS'Bacteria.Bacteroidetes.Sphingobacteria.Sphingobacteriales.Chitinophagaceae'
p223
(lp224
F0.0
aF0.0
aF0.0
aF0.0
aF0.0
aF0.0
aF0.0
aF0.0
aF0.0
aF0.0
aF0.0
aF0.0
aF0.0
aF0.0
aF0.0
aF0.0
aF0.0
aF0.0
aF0.0
aF0.0
aF0.0
aF0.0
aF0.0
aF0.0
aF0.0
aF0.0
aF0.0
aF0.0
aF0.0
aF0.0
asS'Bacteria.Bacteroidetes.Bacteroidia.Bacteroidales.Bacteroidaceae'
p225
(lp226
F48750.172628122571
aF253557.82722000001
aF18283.938814541165
aF22768.670309689442
aF5143.2770022059012
aF140627.32272900001
aF38997.484033251611
aF19202.579888540447
aF180739.70690827689
aF185571.99497181855
aF71258.134490199998
aF22834.788937365734
aF7150.6484062500285
aF27982.473610817826
aF91881.756011442252
aF186442.15669138313
aF32660.781841100001
aF41829.600663599995
aF88192.152548647864
aF78953.107960774199
aF3699.8972250784486
aF98256.254738400006
aF4508.3122006194644
aF19704.988176978168
aF46899.026140402726
aF20533.48685475644
aF66945.121243800008
aF28978.468512250474
aF8118.9474713883883
aF63691.194209888548
asS'Bacteria.Proteobacteria.Alphaproteobacteria.Rhodobacterales'
p227
(lp228
F0.0
aF0.0
aF0.0
aF0.0
aF0.0
aF0.0
aF0.0
aF0.0
aF0.0
aF0.0
aF0.0
aF0.0
aF0.0
aF0.0
aF0.0
aF0.0
aF0.0
aF0.0
aF0.0
aF0.0
aF0.0
aF0.0
aF0.0
aF0.0
aF0.0
aF0.0
aF0.0
aF0.0
aF0.0
aF0.0
asS'Bacteria.Firmicutes.Bacilli.Bacillales.Paenibacillaceae.Paenibacillus'
p229
(lp230
F0.0
aF0.0
aF0.0
aF0.0
aF0.0
aF0.0
aF0.0
aF0.0
aF0.0
aF0.0
aF0.0
aF0.0
aF0.0
aF0.0
aF0.0
aF0.0
aF0.0
aF0.0
aF0.0
aF0.0
aF0.0
aF0.0
aF0.0
aF0.0
aF0.0
aF0.0
aF0.0
aF0.0
aF0.0
aF0.0
asS'Bacteria.Proteobacteria.Betaproteobacteria.Burkholderiales.Alcaligenaceae'
p231
(lp232
F414.30741610226528
aF6414.1110443000007
aF9560.2294455019091
aF12978.142076512981
aF489.83590497203886
aF13527.575442199999
aF6870.5244822908553
aF4690.7065376678975
aF4187.0202372632521
aF8316.4104051852173
aF1084.5986984799999
aF3911.9359534157234
aF363.59229184369747
aF995.8175662216629
aF6949.040370614036
aF26173.442680148772
aF13366.9609079
aF8294.8216613299992
aF8250.8250825127725
aF3707.7426390440401
aF0.0
aF23805.9135709
aF281.76951253871653
aF675.59959463968039
aF3203.485392109043
aF3166.3788140500119
aF12530.4559694
aF1942.6906265226585
aF293.45593270091769
aF2171.2907117062041
asS'Bacteria.Firmicutes.Clostridia.Clostridiales.Gracilibacteraceae.Gracilibacter'
p233
(lp234
F0.0
aF0.0
aF0.0
aF0.0
aF0.0
aF0.0
aF0.0
aF0.0
aF0.0
aF0.0
aF0.0
aF0.0
aF0.0
aF0.0
aF0.0
aF0.0
aF0.0
aF0.0
aF0.0
aF0.0
aF0.0
aF0.0
aF0.0
aF0.0
aF0.0
aF0.0
aF0.0
aF0.0
aF0.0
aF0.0
asS'Bacteria.Firmicutes.Bacilli.Lactobacillales.Carnobacteriaceae.Isobaculum'
p235
(lp236
F0.0
aF0.0
aF0.0
aF0.0
aF0.0
aF0.0
aF0.0
aF0.0
aF0.0
aF0.0
aF0.0
aF0.0
aF0.0
aF0.0
aF0.0
aF0.0
aF0.0
aF0.0
aF0.0
aF0.0
aF0.0
aF0.0
aF0.0
aF0.0
aF0.0
aF0.0
aF0.0
aF0.0
aF0.0
aF0.0
asS'Bacteria.Bacteroidetes.Sphingobacteria.Sphingobacteriales.Sphingobacteriaceae.Nubsella'
p237
(lp238
F0.0
aF0.0
aF0.0
aF0.0
aF0.0
aF0.0
aF0.0
aF0.0
aF0.0
aF0.0
aF0.0
aF0.0
aF0.0
aF0.0
aF0.0
aF0.0
aF0.0
aF0.0
aF0.0
aF0.0
aF0.0
aF0.0
aF0.0
aF0.0
aF0.0
aF0.0
aF0.0
aF0.0
aF0.0
aF0.0
asS'Bacteria.Proteobacteria.Alphaproteobacteria.Rhodospirillales.Acetobacteraceae.Acidisphaera'
p239
(lp240
F0.0
aF0.0
aF0.0
aF0.0
aF0.0
aF0.0
aF0.0
aF0.0
aF0.0
aF0.0
aF0.0
aF0.0
aF0.0
aF0.0
aF0.0
aF0.0
aF0.0
aF0.0
aF0.0
aF0.0
aF0.0
aF0.0
aF0.0
aF0.0
aF0.0
aF0.0
aF0.0
aF0.0
aF0.0
aF0.0
asS'Bacteria.Proteobacteria.Deltaproteobacteria.Desulfovibrionales.Desulfohalobiaceae'
p241
(lp242
F0.0
aF0.0
aF0.0
aF0.0
aF0.0
aF0.0
aF0.0
aF0.0
aF0.0
aF0.0
aF0.0
aF0.0
aF0.0
aF0.0
aF0.0
aF0.0
aF0.0
aF0.0
aF0.0
aF0.0
aF0.0
aF0.0
aF0.0
aF0.0
aF0.0
aF0.0
aF0.0
aF0.0
aF0.0
aF0.0
asS'Bacteria.Firmicutes.Bacilli.Lactobacillales.Enterococcaceae.Atopobacter'
p243
(lp244
F0.0
aF0.0
aF0.0
aF0.0
aF0.0
aF0.0
aF0.0
aF0.0
aF0.0
aF0.0
aF0.0
aF0.0
aF0.0
aF0.0
aF0.0
aF0.0
aF0.0
aF0.0
aF0.0
aF0.0
aF0.0
aF0.0
aF0.0
aF0.0
aF0.0
aF0.0
aF0.0
aF0.0
aF0.0
aF0.0
asS'Bacteria.Actinobacteria.Actinobacteria.Bifidobacteriales.Bifidobacteriaceae.Parascardovia'
p245
(lp246
F0.0
aF0.0
aF0.0
aF0.0
aF0.0
aF0.0
aF0.0
aF0.0
aF0.0
aF0.0
aF0.0
aF0.0
aF0.0
aF0.0
aF0.0
aF0.0
aF0.0
aF0.0
aF0.0
aF0.0
aF0.0
aF0.0
aF0.0
aF0.0
aF0.0
aF0.0
aF0.0
aF0.0
aF0.0
aF0.0
asS'Bacteria.Proteobacteria.Epsilonproteobacteria.Campylobacterales.Helicobacteraceae.Wolinella'
p247
(lp248
F1657.2296644130622
aF801.76388053700009
aF0.0
aF341.53005464534164
aF1714.4256673985863
aF0.0
aF677.3756531830702
aF0.0
aF523.37752965790651
aF0.0
aF1301.51843818
aF181.9505094611732
aF121.19743061489991
aF497.90878311133156
aF330.90668431466827
aF0.0
aF756.62042875199995
aF355.49235691399997
aF0.0
aF0.0
aF411.09969167560558
aF454.89006823400001
aF2535.9256128534507
aF225.19986487989345
aF128.1394156837612
aF0.0
aF464.09096182899998
aF161.89088554338815
aF391.27457693422355
aF1930.0361881766212
asS'Bacteria.Deinococcus_Thermus'
p249
(lp250
F0.0
aF0.0
aF0.0
aF0.0
aF0.0
aF0.0
aF0.0
aF0.0
aF0.0
aF0.0
aF0.0
aF0.0
aF0.0
aF0.0
aF0.0
aF0.0
aF0.0
aF0.0
aF0.0
aF0.0
aF0.0
aF0.0
aF0.0
aF0.0
aF0.0
aF0.0
aF0.0
aF0.0
aF0.0
aF0.0
asS'Bacteria.Firmicutes.Clostridia.Clostridiales.Lachnospiraceae.Roseburia'
p251
(lp252
F828.61483220553077
aF3607.93746242
aF0.0
aF1252.2768670279186
aF0.0
aF1783.8561022700001
aF193.53590090930578
aF439.75373790686541
aF4187.0202372632521
aF5898.8492408816037
aF0.0
aF0.0
aF0.0
aF0.0
aF0.0
aF0.0
aF0.0
aF0.0
aF0.0
aF0.0
aF0.0
aF0.0
aF0.0
aF0.0
aF0.0
aF0.0
aF0.0
aF0.0
aF0.0
aF0.0
asS'Bacteria.Proteobacteria.Alphaproteobacteria.Rhodobacterales.Rhodobacteraceae'
p253
(lp254
F0.0
aF0.0
aF0.0
aF0.0
aF0.0
aF0.0
aF0.0
aF0.0
aF0.0
aF0.0
aF0.0
aF0.0
aF0.0
aF0.0
aF0.0
aF0.0
aF0.0
aF0.0
aF0.0
aF0.0
aF0.0
aF0.0
aF0.0
aF0.0
aF0.0
aF0.0
aF0.0
aF0.0
aF0.0
aF0.0
asS'Bacteria.Firmicutes.Clostridia.Clostridiales.Ruminococcaceae.Hydrogenoanaerobacterium'
p255
(lp256
F0.0
aF0.0
aF0.0
aF0.0
aF0.0
aF0.0
aF0.0
aF0.0
aF0.0
aF0.0
aF0.0
aF0.0
aF0.0
aF0.0
aF0.0
aF0.0
aF0.0
aF0.0
aF0.0
aF0.0
aF0.0
aF0.0
aF0.0
aF0.0
aF0.0
aF0.0
aF0.0
aF0.0
aF0.0
aF0.0
asS'Bacteria.Firmicutes.Clostridia.Clostridiales.Lachnospiraceae.Acetitomaculum'
p257
(lp258
F0.0
aF0.0
aF0.0
aF0.0
aF0.0
aF0.0
aF0.0
aF0.0
aF0.0
aF0.0
aF0.0
aF0.0
aF0.0
aF0.0
aF0.0
aF0.0
aF0.0
aF0.0
aF0.0
aF0.0
aF0.0
aF0.0
aF0.0
aF0.0
aF0.0
aF0.0
aF0.0
aF0.0
aF0.0
aF0.0
asS'Bacteria.Proteobacteria.Alphaproteobacteria'
p259
(lp260
F0.0
aF0.0
aF0.0
aF0.0
aF0.0
aF0.0
aF96.767950454752892
aF0.0
aF0.0
aF0.0
aF0.0
aF0.0
aF0.0
aF0.0
aF0.0
aF0.0
aF0.0
aF0.0
aF0.0
aF0.0
aF0.0
aF0.0
aF0.0
aF0.0
aF0.0
aF0.0
aF0.0
aF0.0
aF0.0
aF0.0
asS'Bacteria.Actinobacteria.Actinobacteria.Actinomycetales.Micrococcaceae.Sinomonas'
p261
(lp262
F0.0
aF0.0
aF0.0
aF0.0
aF0.0
aF0.0
aF0.0
aF0.0
aF0.0
aF0.0
aF0.0
aF0.0
aF0.0
aF0.0
aF0.0
aF0.0
aF0.0
aF0.0
aF0.0
aF0.0
aF0.0
aF0.0
aF0.0
aF0.0
aF0.0
aF0.0
aF0.0
aF0.0
aF0.0
aF0.0
asS'Bacteria.Actinobacteria.Actinobacteria.Coriobacteriales.Coriobacteriaceae.Collinsella'
p263
(lp264
F0.0
aF0.0
aF0.0
aF113.84335154844722
aF0.0
aF148.65467519000001
aF0.0
aF0.0
aF0.0
aF96.702446571944421
aF0.0
aF181.9505094611732
aF0.0
aF99.581756622166296
aF110.30222810455594
aF610.71366253713836
aF126.10340479200001
aF236.99490460999999
aF366.70333700023428
aF0.0
aF0.0
aF758.150113723
aF0.0
aF0.0
aF128.1394156837612
aF95.950873152973074
aF116.022740457
aF404.72721385746996
aF0.0
aF0.0
asS'Bacteria.Firmicutes.Bacilli.Bacillales.Bacillaceae.Natronobacillus'
p265
(lp266
F0.0
aF0.0
aF0.0
aF0.0
aF0.0
aF0.0
aF0.0
aF0.0
aF0.0
aF0.0
aF0.0
aF0.0
aF0.0
aF0.0
aF0.0
aF0.0
aF0.0
aF0.0
aF0.0
aF0.0
aF0.0
aF0.0
aF0.0
aF0.0
aF0.0
aF0.0
aF0.0
aF0.0
aF0.0
aF0.0
asS'Bacteria.Proteobacteria.Gammaproteobacteria.Aeromonadales.Aeromonadaceae.Aeromonas'
p267
(lp268
F0.0
aF0.0
aF0.0
aF0.0
aF0.0
aF0.0
aF0.0
aF0.0
aF0.0
aF0.0
aF0.0
aF0.0
aF0.0
aF0.0
aF0.0
aF0.0
aF0.0
aF0.0
aF0.0
aF0.0
aF0.0
aF0.0
aF0.0
aF0.0
aF128.1394156837612
aF0.0
aF0.0
aF0.0
aF0.0
aF0.0
asS'Bacteria.Firmicutes.Clostridia.Clostridiales.Syntrophomonadaceae.Thermosyntropha'
p269
(lp270
F0.0
aF0.0
aF0.0
aF0.0
aF0.0
aF0.0
aF0.0
aF0.0
aF0.0
aF0.0
aF0.0
aF0.0
aF0.0
aF0.0
aF0.0
aF0.0
aF0.0
aF0.0
aF0.0
aF0.0
aF0.0
aF0.0
aF0.0
aF0.0
aF0.0
aF0.0
aF0.0
aF0.0
aF0.0
aF0.0
asS'Bacteria.Firmicutes.Bacilli.Bacillales.Bacillaceae'
p271
(lp272
F0.0
aF0.0
aF0.0
aF0.0
aF0.0
aF0.0
aF0.0
aF0.0
aF0.0
aF0.0
aF0.0
aF0.0
aF363.59229184369747
aF0.0
aF0.0
aF0.0
aF0.0
aF0.0
aF0.0
aF0.0
aF0.0
aF0.0
aF0.0
aF0.0
aF0.0
aF0.0
aF116.022740457
aF0.0
aF0.0
aF0.0
asS'Bacteria.Firmicutes.Bacilli.Bacillales.Planococcaceae.Filibacter'
p273
(lp274
F0.0
aF0.0
aF0.0
aF0.0
aF0.0
aF0.0
aF0.0
aF0.0
aF0.0
aF0.0
aF0.0
aF0.0
aF0.0
aF0.0
aF0.0
aF0.0
aF0.0
aF0.0
aF0.0
aF0.0
aF0.0
aF0.0
aF0.0
aF0.0
aF0.0
aF0.0
aF0.0
aF0.0
aF0.0
aF0.0
asS'Bacteria.Proteobacteria.Betaproteobacteria'
p275
(lp276
F552.40988813702063
aF6814.9929845699999
aF10635.755258139638
aF14799.635701248131
aF489.83590497203886
aF15162.776869300002
aF7934.9719372925374
aF4983.8756962771413
aF5059.3161200297636
aF9766.9471037593812
aF1193.0585683300001
aF4275.8369723420701
aF363.59229184369747
aF995.8175662216629
aF8052.0626516695993
aF27656.604432027536
aF16267.339218200001
aF9361.2987320800003
aF10634.396773053804
aF3707.7426390440401
aF0.0
aF26686.884003000003
aF563.53902507743305
aF675.59959463968039
aF3716.0430548480917
aF3933.9857992681955
aF14386.819816700001
aF2185.5269548317383
aF293.45593270091769
aF2895.0542822649318
asS'Bacteria.Actinobacteria.Actinobacteria.Actinomycetales.Microbacteriaceae.Curtobacterium'
p277
(lp278
F0.0
aF0.0
aF0.0
aF0.0
aF0.0
aF0.0
aF0.0
aF0.0
aF0.0
aF0.0
aF0.0
aF0.0
aF0.0
aF0.0
aF0.0
aF0.0
aF0.0
aF0.0
aF0.0
aF0.0
aF0.0
aF0.0
aF0.0
aF0.0
aF0.0
aF0.0
aF0.0
aF0.0
aF0.0
aF0.0
asS'Bacteria.Firmicutes.Clostridia.Clostridiales.Lachnospiraceae.Butyrivibrio'
p279
(lp280
F0.0
aF0.0
aF0.0
aF0.0
aF0.0
aF0.0
aF0.0
aF0.0
aF0.0
aF0.0
aF0.0
aF0.0
aF0.0
aF0.0
aF0.0
aF0.0
aF0.0
aF0.0
aF0.0
aF0.0
aF0.0
aF0.0
aF0.0
aF0.0
aF0.0
aF0.0
aF0.0
aF0.0
aF0.0
aF0.0
asS'Bacteria.Firmicutes.Clostridia.Clostridiales.Lachnospiraceae.Moryella'
p281
(lp282
F0.0
aF0.0
aF0.0
aF0.0
aF0.0
aF0.0
aF0.0
aF0.0
aF0.0
aF0.0
aF0.0
aF0.0
aF0.0
aF0.0
aF0.0
aF0.0
aF0.0
aF0.0
aF0.0
aF0.0
aF0.0
aF0.0
aF0.0
aF0.0
aF0.0
aF0.0
aF0.0
aF0.0
aF0.0
aF0.0
asS'Bacteria.Proteobacteria.Gammaproteobacteria.Oceanospirillales.Oceanospirillaceae.Oceanobacter'
p283
(lp284
F0.0
aF0.0
aF0.0
aF0.0
aF0.0
aF0.0
aF0.0
aF0.0
aF0.0
aF0.0
aF0.0
aF0.0
aF0.0
aF0.0
aF0.0
aF0.0
aF0.0
aF0.0
aF0.0
aF0.0
aF0.0
aF0.0
aF0.0
aF0.0
aF0.0
aF0.0
aF0.0
aF0.0
aF0.0
aF0.0
asS'Archaea'
p285
(lp286
F0.0
aF0.0
aF0.0
aF0.0
aF0.0
aF0.0
aF0.0
aF0.0
aF0.0
aF0.0
aF0.0
aF0.0
aF0.0
aF0.0
aF0.0
aF0.0
aF0.0
aF0.0
aF0.0
aF0.0
aF0.0
aF0.0
aF0.0
aF0.0
aF0.0
aF0.0
aF0.0
aF0.0
aF0.0
aF0.0
asS'Archaea.Euryarchaeota.Methanopyri.Methanopyrales.Methanopyraceae'
p287
(lp288
F0.0
aF0.0
aF0.0
aF0.0
aF0.0
aF0.0
aF0.0
aF0.0
aF0.0
aF0.0
aF0.0
aF0.0
aF0.0
aF0.0
aF0.0
aF0.0
aF0.0
aF0.0
aF0.0
aF0.0
aF0.0
aF0.0
aF0.0
aF0.0
aF0.0
aF0.0
aF0.0
aF0.0
aF0.0
aF0.0
asS'Bacteria.Firmicutes.Clostridia.Clostridiales.Veillonellaceae.Dialister'
p289
(lp290
F0.0
aF0.0
aF0.0
aF0.0
aF244.91795248551233
aF0.0
aF0.0
aF0.0
aF0.0
aF0.0
aF0.0
aF0.0
aF0.0
aF0.0
aF0.0
aF0.0
aF0.0
aF0.0
aF0.0
aF0.0
aF0.0
aF0.0
aF0.0
aF0.0
aF0.0
aF0.0
aF0.0
aF0.0
aF0.0
aF0.0
asS'Bacteria.Firmicutes'
p291
(lp292
F738157.71302297618
aF287231.910202
aF797084.13001928455
aF462431.69398946251
aF518491.30541321903
aF310688.27114600001
aF650280.62705562741
aF657431.83816995367
aF485170.96999330953
aF314186.24891249463
aF723752.71149699995
aF817412.66375561815
aF852987.51666397916
aF751742.68074055715
aF642069.26979976054
aF605129.99476593675
aF754854.98108399997
aF771299.91705199995
aF757609.09424312215
aF811341.33042553021
aF903186.02261010872
aF691281.27369199996
aF837137.22175303206
aF887737.86735757103
aF665299.84623304289
aF873344.84743839968
aF817264.18378000008
aF853084.02137000556
aF888878.02015071653
aF747647.76839574182
asS'Archaea.Crenarchaeota.Thermoprotei.Sulfolobales.Sulfolobaceae'
p293
(lp294
F0.0
aF0.0
aF0.0
aF0.0
aF0.0
aF0.0
aF0.0
aF0.0
aF0.0
aF0.0
aF0.0
aF0.0
aF0.0
aF0.0
aF0.0
aF0.0
aF0.0
aF0.0
aF0.0
aF0.0
aF0.0
aF0.0
aF0.0
aF0.0
aF0.0
aF0.0
aF0.0
aF0.0
aF0.0
aF0.0
asS'Bacteria.Firmicutes.Clostridia.Clostridiales.Ruminococcaceae.Lactonifactor'
p295
(lp296
F0.0
aF0.0
aF0.0
aF0.0
aF0.0
aF0.0
aF0.0
aF0.0
aF0.0
aF0.0
aF0.0
aF0.0
aF0.0
aF0.0
aF0.0
aF0.0
aF0.0
aF0.0
aF0.0
aF0.0
aF0.0
aF0.0
aF0.0
aF0.0
aF0.0
aF0.0
aF0.0
aF0.0
aF0.0
aF0.0
asS'Bacteria.Firmicutes.Clostridia.Clostridiales.Lachnospiraceae'
p297
(lp298
F156470.10081477158
aF127280.01603499999
aF77437.858508615507
aF121015.48269595437
aF184423.21822192546
aF51731.826965999993
aF138958.77685289955
aF157725.00732923305
aF112351.7096995504
aF117976.98481743193
aF183188.72017400002
aF265192.86754001246
aF224942.431220717
aF219677.3551088055
aF251819.98676349857
aF252224.7426280184
aF290290.03783099999
aF169806.84915299999
aF272643.93105969467
aF326281.35223595559
aF213360.73997974733
aF80060.652009099998
aF442659.90419882885
aF191757.68494517673
aF135955.92004061176
aF136921.89598957874
aF115558.64949500001
aF131860.12627503162
aF165411.3273992583
aF175633.29312429269
asS'Bacteria.Bacteroidetes.Bacteroidia.Bacteroidales.Porphyromonadaceae.Parabacteroides'
p299
(lp300
F2209.6395525440812
aF13229.104028900001
aF478.01147227509546
aF4439.8907103844404
aF1224.5897624275617
aF6392.1510331499994
aF2032.1269595532112
aF146.58457930262185
aF3663.6427076053446
aF11120.781355718565
aF1952.2776572700002
aF727.80203784569278
aF0.0
aF0.0
aF992.72005294500525
aF174.48961786732468
aF0.0
aF829.48216613299996
aF0.0
aF1308.6150490773121
aF0.0
aF0.0
aF140.8847562698584
aF675.59959463968039
aF896.97590978933101
aF3838.0349261209235
aF4408.8641373700002
aF2994.981382548679
aF195.63728846761182
aF2171.2907117062041
asS'Bacteria.Firmicutes.Bacilli.Bacillales.Bacillaceae.Vulcanibacillus'
p301
(lp302
F0.0
aF0.0
aF0.0
aF0.0
aF0.0
aF0.0
aF0.0
aF0.0
aF0.0
aF0.0
aF0.0
aF0.0
aF0.0
aF0.0
aF0.0
aF0.0
aF0.0
aF0.0
aF0.0
aF0.0
aF0.0
aF0.0
aF0.0
aF0.0
aF0.0
aF0.0
aF0.0
aF0.0
aF0.0
aF0.0
asS'Bacteria.Actinobacteria.Actinobacteria.Coriobacteriales.Coriobacteriaceae.Paraeggerthella'
p303
(lp304
F0.0
aF0.0
aF0.0
aF0.0
aF0.0
aF0.0
aF0.0
aF0.0
aF0.0
aF0.0
aF0.0
aF0.0
aF0.0
aF0.0
aF0.0
aF0.0
aF0.0
aF0.0
aF0.0
aF0.0
aF0.0
aF0.0
aF0.0
aF0.0
aF0.0
aF0.0
aF0.0
aF0.0
aF0.0
aF0.0
asS'Bacteria.Actinobacteria.Actinobacteria.Coriobacteriales.Coriobacteriaceae.Enterorhabdus'
p305
(lp306
F0.0
aF1002.20485067
aF717.01720841314352
aF1593.806921678261
aF489.83590497203886
aF1040.58272633
aF0.0
aF293.16915860424359
aF523.37752965790651
aF580.21467943166647
aF0.0
aF181.9505094611732
aF727.18458368639256
aF995.8175662216629
aF2095.7423339975676
aF348.97923573565072
aF252.20680958400001
aF473.98980921899999
aF1283.4616795013201
aF436.20501635776895
aF205.54984583780279
aF1061.4101592100001
aF140.8847562698584
aF112.59993244044718
aF1281.3941568376119
aF575.70523891763844
aF116.022740457
aF161.89088554338815
aF0.0
aF241.25452352257804
asS'Bacteria.Proteobacteria.Gammaproteobacteria.Oceanospirillales.Hahellaceae.Halospina'
p307
(lp308
F0.0
aF0.0
aF0.0
aF0.0
aF0.0
aF0.0
aF0.0
aF0.0
aF0.0
aF0.0
aF0.0
aF0.0
aF0.0
aF0.0
aF0.0
aF0.0
aF0.0
aF0.0
aF0.0
aF0.0
aF0.0
aF0.0
aF0.0
aF0.0
aF0.0
aF0.0
aF0.0
aF0.0
aF0.0
aF0.0
asS'Archaea.Crenarchaeota.Thermoprotei.Thermoproteales.Thermoproteaceae.Caldivirga'
p309
(lp310
F0.0
aF0.0
aF0.0
aF0.0
aF0.0
aF0.0
aF0.0
aF0.0
aF0.0
aF0.0
aF0.0
aF0.0
aF0.0
aF0.0
aF0.0
aF0.0
aF0.0
aF0.0
aF0.0
aF0.0
aF0.0
aF0.0
aF0.0
aF0.0
aF0.0
aF0.0
aF0.0
aF0.0
aF0.0
aF0.0
asS'Bacteria.Proteobacteria.Gammaproteobacteria.Pasteurellales'
p311
(lp312
F0.0
aF0.0
aF0.0
aF0.0
aF0.0
aF0.0
aF0.0
aF0.0
aF0.0
aF0.0
aF0.0
aF0.0
aF0.0
aF0.0
aF0.0
aF0.0
aF0.0
aF0.0
aF0.0
aF0.0
aF0.0
aF0.0
aF0.0
aF0.0
aF0.0
aF0.0
aF0.0
aF0.0
aF0.0
aF0.0
asS'Bacteria.Firmicutes.Clostridia.Clostridiales.Lachnospiraceae.Robinsoniella'
p313
(lp314
F0.0
aF0.0
aF0.0
aF0.0
aF0.0
aF0.0
aF0.0
aF0.0
aF0.0
aF0.0
aF0.0
aF0.0
aF0.0
aF0.0
aF0.0
aF0.0
aF0.0
aF0.0
aF0.0
aF0.0
aF0.0
aF0.0
aF0.0
aF0.0
aF0.0
aF0.0
aF0.0
aF0.0
aF0.0
aF0.0
asS'Bacteria.Aquificae.Aquificae'
p315
(lp316
F0.0
aF0.0
aF0.0
aF0.0
aF0.0
aF0.0
aF0.0
aF0.0
aF0.0
aF0.0
aF0.0
aF0.0
aF0.0
aF0.0
aF0.0
aF0.0
aF0.0
aF0.0
aF0.0
aF0.0
aF0.0
aF0.0
aF0.0
aF0.0
aF0.0
aF0.0
aF0.0
aF0.0
aF0.0
aF0.0
asS'Bacteria.Firmicutes.Clostridia.Halanaerobiales'
p317
(lp318
F0.0
aF0.0
aF0.0
aF0.0
aF0.0
aF0.0
aF0.0
aF0.0
aF0.0
aF0.0
aF0.0
aF0.0
aF0.0
aF0.0
aF0.0
aF0.0
aF0.0
aF0.0
aF0.0
aF0.0
aF0.0
aF0.0
aF0.0
aF0.0
aF0.0
aF0.0
aF0.0
aF0.0
aF0.0
aF0.0
asS'Bacteria.Chlamydiae'
p319
(lp320
F0.0
aF0.0
aF0.0
aF0.0
aF0.0
aF0.0
aF0.0
aF0.0
aF0.0
aF0.0
aF0.0
aF0.0
aF0.0
aF0.0
aF0.0
aF0.0
aF0.0
aF0.0
aF0.0
aF0.0
aF0.0
aF0.0
aF0.0
aF0.0
aF0.0
aF0.0
aF0.0
aF0.0
aF0.0
aF0.0
asS'Bacteria.Chloroflexi.Thermomicrobia.Sphaerobacterales.Sphaerobacteraceae'
p321
(lp322
F0.0
aF0.0
aF0.0
aF0.0
aF0.0
aF0.0
aF0.0
aF0.0
aF0.0
aF0.0
aF0.0
aF0.0
aF0.0
aF0.0
aF0.0
aF0.0
aF0.0
aF0.0
aF0.0
aF0.0
aF0.0
aF0.0
aF0.0
aF0.0
aF0.0
aF0.0
aF0.0
aF0.0
aF0.0
aF0.0
asS'Bacteria.Firmicutes.Bacilli.Bacillales.Staphylococcaceae.Staphylococcus'
p323
(lp324
F7457.5334898487781
aF21246.742834200002
aF2868.0688336505732
aF10587.431694010591
aF3673.7692872928274
aF2527.1294782199998
aF6967.2924327410083
aF13925.53503371407
aF25122.121423599521
aF3384.5856300130513
aF2711.4967462
aF10007.278020349524
aF0.0
aF0.0
aF110.30222810455594
aF4798.4644913689517
aF12232.0302648
aF15878.6586088
aF17235.056839032015
aF4143.9476553998056
aF205.54984583780279
aF1819.5602729300001
aF2676.8103691203078
aF675.59959463968039
aF768.83649410556984
aF0.0
aF2552.5002900600002
aF323.7817710867763
aF782.5491538694472
aF482.50904704515608
asS'Bacteria.Deferribacteres.Deferribacteres'
p325
(lp326
F13948.349675428261
aF16636.600521100001
aF13862.332695952755
aF9562.8415300595643
aF16899.338721490207
aF1783.8561022700001
aF58931.681826963111
aF42949.281735559191
aF13607.81577114559
aF21661.348032087531
aF14316.70282
aF13919.213973845255
aF32844.503696486528
aF21907.986456918592
aF53165.673946634073
aF14220.903856190467
aF24211.8537201
aF20618.556700999998
aF15951.595159530696
aF16793.893129777109
aF22816.032887922061
aF8339.6512509499989
aF30994.646379308833
aF6868.5958788392527
aF9866.7350076866442
aF9978.8908079064004
aF4408.8641373700002
aF15622.470454950964
aF26997.945808460423
aF30880.579010845955
asS'Bacteria.Aquificae.Aquificae.Aquificales'
p327
(lp328
F0.0
aF0.0
aF0.0
aF0.0
aF0.0
aF0.0
aF0.0
aF0.0
aF0.0
aF0.0
aF0.0
aF0.0
aF0.0
aF0.0
aF0.0
aF0.0
aF0.0
aF0.0
aF0.0
aF0.0
aF0.0
aF0.0
aF0.0
aF0.0
aF0.0
aF0.0
aF0.0
aF0.0
aF0.0
aF0.0
asS'Bacteria.Actinobacteria.Actinobacteria.Bifidobacteriales'
p329
(lp330
F138.10247203375499
aF132892.36319900001
aF3704.5889101332409
aF139685.79234963967
aF26206.220916020811
aF141667.90545600001
aF23901.68376234777
aF102169.45177406645
aF17445.917655230198
aF28430.519292133646
aF108.45986984800001
aF272.92576419225981
aF0.0
aF0.0
aF882.41782484044927
aF785.2032804054644
aF5170.2395964699999
aF8294.8216613299992
aF3483.6817015007259
aF218.10250817888448
aF0.0
aF1516.3002274500002
aF140.8847562698584
aF0.0
aF768.83649410556984
aF287.85261945881922
aF116.022740457
aF0.0
aF97.81864423360588
aF0.0
asS'Bacteria.Firmicutes.Bacilli.Lactobacillales.Carnobacteriaceae.Lacticigenium'
p331
(lp332
F0.0
aF0.0
aF0.0
aF0.0
aF0.0
aF0.0
aF0.0
aF0.0
aF0.0
aF0.0
aF0.0
aF0.0
aF0.0
aF0.0
aF0.0
aF0.0
aF0.0
aF0.0
aF0.0
aF0.0
aF0.0
aF0.0
aF0.0
aF0.0
aF0.0
aF0.0
aF0.0
aF0.0
aF0.0
aF0.0
asS'Bacteria.Proteobacteria.Gammaproteobacteria.Pseudomonadales.Moraxellaceae.Acinetobacter'
p333
(lp334
F0.0
aF0.0
aF0.0
aF0.0
aF0.0
aF0.0
aF0.0
aF0.0
aF0.0
aF0.0
aF0.0
aF0.0
aF0.0
aF0.0
aF0.0
aF0.0
aF0.0
aF0.0
aF0.0
aF0.0
aF0.0
aF0.0
aF0.0
aF0.0
aF128.1394156837612
aF0.0
aF0.0
aF0.0
aF0.0
aF0.0
asS'Bacteria.Proteobacteria.Deltaproteobacteria.Desulfovibrionales.Desulfovibrionaceae.Desulfovibrio'
p335
(lp336
F966.7173042392858
aF801.76388053700009
aF597.51434034361921
aF2276.8670309689442
aF489.83590497203886
aF0.0
aF1645.0551577325996
aF2345.3532688339487
aF872.29588276351092
aF1353.8342520092233
aF2386.1171366600001
aF1455.6040756953862
aF2060.3563204462826
aF2788.2891854214563
aF2647.2534745153448
aF1308.672134012445
aF2269.8612862499999
aF1895.9592368799999
aF1100.1100109997028
aF1090.5125408994288
aF205.54984583780279
aF1061.4101592100001
aF986.19329388600795
aF2589.7984461162723
aF768.83649410556984
aF671.6561120709116
aF348.06822137099999
aF1052.2907560260207
aF1858.5542404348114
aF1688.7816646570454
asS'Bacteria.Proteobacteria.Gammaproteobacteria.Oceanospirillales.Hahellaceae'
p337
(lp338
F0.0
aF0.0
aF0.0
aF0.0
aF0.0
aF0.0
aF0.0
aF0.0
aF0.0
aF0.0
aF0.0
aF0.0
aF0.0
aF0.0
aF0.0
aF0.0
aF0.0
aF0.0
aF0.0
aF0.0
aF0.0
aF0.0
aF0.0
aF0.0
aF0.0
aF0.0
aF0.0
aF0.0
aF0.0
aF0.0
asS'Bacteria.Firmicutes.Clostridia.Clostridiales.Gracilibacteraceae.Lutispora'
p339
(lp340
F0.0
aF0.0
aF0.0
aF0.0
aF0.0
aF0.0
aF0.0
aF0.0
aF0.0
aF0.0
aF0.0
aF0.0
aF0.0
aF0.0
aF0.0
aF0.0
aF0.0
aF0.0
aF0.0
aF0.0
aF0.0
aF0.0
aF0.0
aF0.0
aF0.0
aF0.0
aF0.0
aF0.0
aF0.0
aF0.0
asS'Bacteria.Bacteroidetes.Sphingobacteria.Sphingobacteriales.Cytophagaceae'
p341
(lp342
F0.0
aF0.0
aF0.0
aF0.0
aF0.0
aF0.0
aF0.0
aF0.0
aF0.0
aF0.0
aF0.0
aF0.0
aF0.0
aF0.0
aF0.0
aF0.0
aF0.0
aF0.0
aF0.0
aF0.0
aF0.0
aF0.0
aF0.0
aF0.0
aF0.0
aF0.0
aF0.0
aF0.0
aF0.0
aF0.0
asS'Bacteria.Firmicutes.Bacilli.Lactobacillales.Carnobacteriaceae.Carnobacterium'
p343
(lp344
F0.0
aF0.0
aF0.0
aF0.0
aF0.0
aF0.0
aF0.0
aF0.0
aF0.0
aF0.0
aF0.0
aF0.0
aF0.0
aF0.0
aF0.0
aF0.0
aF0.0
aF0.0
aF0.0
aF0.0
aF0.0
aF0.0
aF0.0
aF0.0
aF0.0
aF0.0
aF0.0
aF0.0
aF0.0
aF0.0
asS'Bacteria.Actinobacteria.Actinobacteria.Bifidobacteriales.Bifidobacteriaceae.Gardnerella'
p345
(lp346
F0.0
aF0.0
aF0.0
aF113.84335154844722
aF0.0
aF0.0
aF0.0
aF0.0
aF0.0
aF0.0
aF0.0
aF0.0
aF0.0
aF0.0
aF0.0
aF0.0
aF0.0
aF0.0
aF0.0
aF0.0
aF0.0
aF0.0
aF0.0
aF0.0
aF0.0
aF0.0
aF0.0
aF0.0
aF0.0
aF0.0
asS'Bacteria.Firmicutes.Clostridia.Clostridiales.Eubacteriaceae.Eubacterium'
p347
(lp348
F0.0
aF0.0
aF0.0
aF0.0
aF0.0
aF0.0
aF0.0
aF0.0
aF0.0
aF0.0
aF0.0
aF0.0
aF0.0
aF0.0
aF0.0
aF0.0
aF0.0
aF0.0
aF0.0
aF0.0
aF0.0
aF0.0
aF0.0
aF0.0
aF0.0
aF0.0
aF0.0
aF0.0
aF0.0
aF0.0
asS'Bacteria.Proteobacteria.Deltaproteobacteria'
p349
(lp350
F8009.9433779898
aF5411.9061936299995
aF3107.0745697856196
aF9335.1548269626692
aF4653.441097234876
aF3121.7481789799999
aF6967.2924327410083
aF4983.8756962771413
aF4884.8569434804631
aF10250.459336644122
aF7158.3514099800004
aF5367.54002911111
aF9695.7944491519011
aF11153.15674166582
aF7390.2492830382625
aF5758.1573896387372
aF8196.7213114799997
aF5450.8828060199994
aF5683.9017235101328
aF3707.7426390440401
aF3288.797533400842
aF6974.9810462499991
aF5071.851225696897
aF6643.3960139643632
aF6663.2496155776025
aF6428.7085012472962
aF2668.5230305099999
aF6394.6899789558292
aF3423.6525481757062
aF7961.3992762360685
asS'Bacteria.Deinococcus_Thermus.Deinococci.Thermales.Thermaceae'
p351
(lp352
F0.0
aF0.0
aF0.0
aF0.0
aF0.0
aF0.0
aF0.0
aF0.0
aF0.0
aF0.0
aF0.0
aF0.0
aF0.0
aF0.0
aF0.0
aF0.0
aF0.0
aF0.0
aF0.0
aF0.0
aF0.0
aF0.0
aF0.0
aF0.0
aF0.0
aF0.0
aF0.0
aF0.0
aF0.0
aF0.0
asS'Bacteria.Actinobacteria.Actinobacteria.Acidimicrobiales.Acidimicrobiaceae.Ferrimicrobium'
p353
(lp354
F0.0
aF0.0
aF0.0
aF0.0
aF0.0
aF0.0
aF0.0
aF0.0
aF0.0
aF0.0
aF0.0
aF0.0
aF0.0
aF0.0
aF0.0
aF0.0
aF0.0
aF0.0
aF0.0
aF0.0
aF0.0
aF0.0
aF0.0
aF0.0
aF0.0
aF0.0
aF0.0
aF0.0
aF0.0
aF0.0
asS'Bacteria.Firmicutes.Clostridia.Clostridiales.Lachnospiraceae.Syntrophococcus'
p355
(lp356
F0.0
aF0.0
aF0.0
aF0.0
aF0.0
aF0.0
aF0.0
aF0.0
aF0.0
aF0.0
aF0.0
aF0.0
aF0.0
aF0.0
aF0.0
aF0.0
aF0.0
aF0.0
aF0.0
aF0.0
aF0.0
aF0.0
aF0.0
aF0.0
aF0.0
aF0.0
aF0.0
aF0.0
aF0.0
aF0.0
asS'Bacteria.Firmicutes.Clostridia.Clostridiales.Syntrophomonadaceae'
p357
(lp358
F0.0
aF0.0
aF0.0
aF0.0
aF0.0
aF0.0
aF0.0
aF0.0
aF0.0
aF0.0
aF0.0
aF0.0
aF0.0
aF0.0
aF0.0
aF0.0
aF0.0
aF0.0
aF0.0
aF0.0
aF0.0
aF0.0
aF0.0
aF0.0
aF0.0
aF0.0
aF0.0
aF0.0
aF0.0
aF0.0
asS'Bacteria.Actinobacteria.Actinobacteria.Coriobacteriales'
p359
(lp360
F552.40988813702063
aF1403.0867909399999
aF1195.0286806852373
aF3073.770491803074
aF734.75385745755113
aF2378.4748030299997
aF1064.4474550016819
aF879.50747581273072
aF1046.755059315813
aF1160.42935885933
aF1626.89804772
aF1182.6783115031262
aF2787.5409041296684
aF3087.0344552912557
aF7831.4581954524847
aF5758.1573896387372
aF3656.99873897
aF4858.3955445000001
aF3850.3850385039605
aF872.41003271553791
aF411.09969167560558
aF6216.8309325199998
aF281.76951253871653
aF337.79979732034064
aF2178.3700666309469
aF1055.4596046800034
aF1740.3411068600001
aF1133.2361988057178
aF586.91186540183537
aF482.50904704515608
asS'Bacteria.Firmicutes.Clostridia.Clostridiales.Clostridiaceae'
p361
(lp362
F0.0
aF0.0
aF0.0
aF113.84335154844722
aF0.0
aF0.0
aF0.0
aF0.0
aF0.0
aF96.702446571944421
aF0.0
aF0.0
aF0.0
aF0.0
aF0.0
aF0.0
aF0.0
aF0.0
aF0.0
aF0.0
aF0.0
aF0.0
aF0.0
aF0.0
aF0.0
aF0.0
aF0.0
aF0.0
aF0.0
aF0.0
asS'Bacteria.Firmicutes.Clostridia.Clostridiales.Ruminococcaceae.Acetanaerobacterium'
p363
(lp364
F0.0
aF0.0
aF0.0
aF0.0
aF0.0
aF0.0
aF0.0
aF0.0
aF0.0
aF0.0
aF0.0
aF0.0
aF0.0
aF0.0
aF0.0
aF0.0
aF0.0
aF0.0
aF0.0
aF0.0
aF0.0
aF0.0
aF0.0
aF0.0
aF0.0
aF0.0
aF0.0
aF80.945442771594045
aF0.0
aF0.0
asS'Bacteria.Firmicutes.Clostridia.Clostridiales.Lachnospiraceae.Hespellia'
p365
(lp366
F0.0
aF0.0
aF0.0
aF0.0
aF0.0
aF0.0
aF0.0
aF0.0
aF0.0
aF0.0
aF0.0
aF0.0
aF0.0
aF0.0
aF0.0
aF0.0
aF0.0
aF0.0
aF0.0
aF0.0
aF0.0
aF0.0
aF0.0
aF0.0
aF0.0
aF0.0
aF0.0
aF0.0
aF0.0
aF0.0
asS'Bacteria.Actinobacteria.Actinobacteria.Acidimicrobiales'
p367
(lp368
F0.0
aF0.0
aF0.0
aF0.0
aF0.0
aF0.0
aF0.0
aF0.0
aF0.0
aF0.0
aF0.0
aF0.0
aF0.0
aF0.0
aF0.0
aF0.0
aF0.0
aF0.0
aF0.0
aF0.0
aF0.0
aF0.0
aF0.0
aF0.0
aF0.0
aF0.0
aF0.0
aF0.0
aF0.0
aF0.0
asS'Bacteria.Firmicutes.Clostridia.Clostridiales.Lachnospiraceae.Johnsonella'
p369
(lp370
F0.0
aF0.0
aF0.0
aF0.0
aF0.0
aF0.0
aF0.0
aF0.0
aF0.0
aF0.0
aF0.0
aF0.0
aF0.0
aF0.0
aF0.0
aF0.0
aF0.0
aF0.0
aF0.0
aF0.0
aF0.0
aF0.0
aF0.0
aF0.0
aF0.0
aF0.0
aF0.0
aF0.0
aF0.0
aF0.0
asS'Bacteria.Proteobacteria.Betaproteobacteria.Burkholderiales.Burkholderiales_incertae_sedis.Aquabacterium'
p371
(lp372
F0.0
aF0.0
aF0.0
aF0.0
aF0.0
aF0.0
aF0.0
aF0.0
aF0.0
aF0.0
aF0.0
aF0.0
aF0.0
aF0.0
aF0.0
aF0.0
aF0.0
aF0.0
aF0.0
aF0.0
aF0.0
aF0.0
aF0.0
aF0.0
aF0.0
aF0.0
aF0.0
aF0.0
aF0.0
aF0.0
asS'Bacteria.Chloroflexi.Thermomicrobia.Sphaerobacterales.Sphaerobacteraceae.Sphaerobacter'
p373
(lp374
F0.0
aF0.0
aF0.0
aF0.0
aF0.0
aF0.0
aF0.0
aF0.0
aF0.0
aF0.0
aF0.0
aF0.0
aF0.0
aF0.0
aF0.0
aF0.0
aF0.0
aF0.0
aF0.0
aF0.0
aF0.0
aF0.0
aF0.0
aF0.0
aF0.0
aF0.0
aF0.0
aF0.0
aF0.0
aF0.0
asS'Bacteria.Actinobacteria.Actinobacteria.Rubrobacterales.Rubrobacteraceae.Rubrobacter'
p375
(lp376
F0.0
aF0.0
aF0.0
aF0.0
aF0.0
aF0.0
aF0.0
aF0.0
aF0.0
aF0.0
aF0.0
aF0.0
aF0.0
aF0.0
aF0.0
aF0.0
aF0.0
aF0.0
aF0.0
aF0.0
aF0.0
aF0.0
aF0.0
aF0.0
aF0.0
aF0.0
aF0.0
aF0.0
aF0.0
aF0.0
asS'Bacteria.Firmicutes.Bacilli.Lactobacillales.Aerococcaceae.Ignavigranum'
p377
(lp378
F0.0
aF0.0
aF0.0
aF0.0
aF0.0
aF0.0
aF0.0
aF0.0
aF0.0
aF0.0
aF0.0
aF0.0
aF0.0
aF0.0
aF0.0
aF0.0
aF0.0
aF0.0
aF0.0
aF0.0
aF0.0
aF0.0
aF0.0
aF0.0
aF0.0
aF0.0
aF0.0
aF0.0
aF0.0
aF0.0
asS'Bacteria.Firmicutes.Bacilli.Lactobacillales.Aerococcaceae.Abiotrophia'
p379
(lp380
F0.0
aF0.0
aF0.0
aF0.0
aF0.0
aF0.0
aF0.0
aF0.0
aF0.0
aF0.0
aF0.0
aF0.0
aF0.0
aF0.0
aF0.0
aF0.0
aF0.0
aF0.0
aF0.0
aF0.0
aF0.0
aF0.0
aF0.0
aF0.0
aF0.0
aF0.0
aF0.0
aF0.0
aF0.0
aF0.0
asS'Bacteria.Proteobacteria.Gammaproteobacteria'
p381
(lp382
F0.0
aF0.0
aF1792.5430210328589
aF341.53005464534164
aF244.91795248551233
aF0.0
aF0.0
aF0.0
aF0.0
aF96.702446571944421
aF216.91973969600002
aF818.77729257677947
aF0.0
aF497.90878311133156
aF551.51114052478056
aF174.48961786732468
aF126.10340479200001
aF236.99490460999999
aF183.35166850061725
aF436.20501635776895
aF0.0
aF454.89006823400001
aF1127.0780501548661
aF0.0
aF30625.320348578069
aF863.55785837645772
aF348.06822137099999
aF161.89088554338815
aF0.0
aF723.76357056673339
asS'Bacteria.Actinobacteria.Actinobacteria'
p383
(lp384
F828.61483220553077
aF134495.89095999999
aF4899.6175908184778
aF142873.4061929762
aF27920.646583388974
aF144195.034934
aF25159.667118239755
aF103048.9592494041
aF18492.672714626053
aF29590.94865103301
aF1735.3579175700002
aF1728.5298398876459
aF2787.5409041296684
aF3087.0344552912557
aF8713.8760202909325
aF6543.3606700421988
aF8827.238335439999
aF13153.217205800001
aF7334.0667400046859
aF1308.6150490773121
aF411.09969167560558
aF7733.1311599700002
aF422.65426880857501
aF450.39972975978691
aF3075.3459764242812
aF1343.3122241418232
aF2320.4548091400002
aF1214.181641575411
aF880.36779810275311
aF723.76357056673339
asS'Bacteria.Bacteroidetes.Sphingobacteria.Sphingobacteriales.Sphingobacteriaceae'
p385
(lp386
F0.0
aF0.0
aF0.0
aF0.0
aF0.0
aF0.0
aF0.0
aF0.0
aF0.0
aF0.0
aF0.0
aF0.0
aF0.0
aF0.0
aF0.0
aF0.0
aF0.0
aF0.0
aF0.0
aF0.0
aF0.0
aF0.0
aF0.0
aF0.0
aF0.0
aF0.0
aF0.0
aF0.0
aF0.0
aF0.0
asS'Bacteria.Proteobacteria.Gammaproteobacteria.Enterobacteriales.Enterobacteriaceae.Plesiomonas'
p387
(lp388
F0.0
aF0.0
aF0.0
aF0.0
aF0.0
aF0.0
aF0.0
aF0.0
aF0.0
aF0.0
aF0.0
aF0.0
aF0.0
aF0.0
aF0.0
aF0.0
aF0.0
aF0.0
aF0.0
aF0.0
aF0.0
aF0.0
aF0.0
aF0.0
aF0.0
aF0.0
aF0.0
aF0.0
aF0.0
aF0.0
asS'Bacteria.Firmicutes.Bacilli.Lactobacillales.Enterococcaceae.Catellicoccus'
p389
(lp390
F0.0
aF0.0
aF0.0
aF0.0
aF0.0
aF0.0
aF0.0
aF0.0
aF0.0
aF0.0
aF0.0
aF0.0
aF0.0
aF0.0
aF0.0
aF0.0
aF0.0
aF0.0
aF0.0
aF0.0
aF0.0
aF0.0
aF0.0
aF0.0
aF0.0
aF0.0
aF0.0
aF0.0
aF0.0
aF0.0
asS'Bacteria.Firmicutes.Clostridia.Clostridiales.Lachnospiraceae.Pseudobutyrivibrio'
p391
(lp392
F138.10247203375499
aF0.0
aF0.0
aF0.0
aF0.0
aF0.0
aF0.0
aF0.0
aF0.0
aF0.0
aF0.0
aF0.0
aF0.0
aF0.0
aF0.0
aF0.0
aF0.0
aF0.0
aF0.0
aF0.0
aF0.0
aF0.0
aF0.0
aF0.0
aF0.0
aF0.0
aF0.0
aF0.0
aF97.81864423360588
aF0.0
asS'Bacteria.Fusobacteria.Fusobacteria.Fusobacteriales.Leptotrichiaceae'
p393
(lp394
F0.0
aF0.0
aF0.0
aF0.0
aF0.0
aF0.0
aF0.0
aF0.0
aF0.0
aF0.0
aF0.0
aF0.0
aF0.0
aF0.0
aF0.0
aF0.0
aF0.0
aF0.0
aF0.0
aF0.0
aF0.0
aF0.0
aF0.0
aF0.0
aF0.0
aF0.0
aF0.0
aF0.0
aF0.0
aF0.0
asS'Bacteria.Firmicutes.Bacilli.Lactobacillales.Enterococcaceae.Enterococcus'
p395
(lp396
F0.0
aF0.0
aF0.0
aF0.0
aF0.0
aF148.65467519000001
aF0.0
aF0.0
aF0.0
aF0.0
aF0.0
aF0.0
aF0.0
aF0.0
aF0.0
aF0.0
aF0.0
aF0.0
aF0.0
aF0.0
aF0.0
aF0.0
aF0.0
aF0.0
aF2690.9277293699952
aF0.0
aF0.0
aF0.0
aF0.0
aF0.0
asS'Bacteria.Firmicutes.Bacilli.Bacillales.Bacillaceae.Cerasibacillus'
p397
(lp398
F0.0
aF0.0
aF0.0
aF0.0
aF0.0
aF0.0
aF0.0
aF0.0
aF0.0
aF0.0
aF0.0
aF0.0
aF0.0
aF0.0
aF0.0
aF0.0
aF0.0
aF0.0
aF0.0
aF0.0
aF0.0
aF0.0
aF0.0
aF0.0
aF0.0
aF0.0
aF0.0
aF0.0
aF0.0
aF0.0
asS'Bacteria.Firmicutes.Bacilli.Lactobacillales.Enterococcaceae.Vagococcus'
p399
(lp400
F0.0
aF0.0
aF0.0
aF0.0
aF0.0
aF0.0
aF0.0
aF0.0
aF0.0
aF0.0
aF0.0
aF0.0
aF0.0
aF0.0
aF0.0
aF0.0
aF0.0
aF0.0
aF0.0
aF0.0
aF0.0
aF0.0
aF0.0
aF0.0
aF0.0
aF0.0
aF0.0
aF0.0
aF0.0
aF0.0
asS'Bacteria.Proteobacteria.Gammaproteobacteria.Oceanospirillales.Oceanospirillaceae'
p401
(lp402
F0.0
aF0.0
aF0.0
aF0.0
aF0.0
aF0.0
aF0.0
aF0.0
aF0.0
aF0.0
aF0.0
aF0.0
aF0.0
aF0.0
aF0.0
aF0.0
aF0.0
aF0.0
aF0.0
aF0.0
aF0.0
aF0.0
aF0.0
aF0.0
aF0.0
aF0.0
aF0.0
aF0.0
aF0.0
aF0.0
asS'Bacteria.Firmicutes.Bacilli.Lactobacillales.Streptococcaceae.Lactovum'
p403
(lp404
F0.0
aF0.0
aF0.0
aF0.0
aF0.0
aF0.0
aF0.0
aF0.0
aF0.0
aF0.0
aF0.0
aF0.0
aF0.0
aF0.0
aF0.0
aF0.0
aF0.0
aF0.0
aF0.0
aF0.0
aF0.0
aF0.0
aF0.0
aF0.0
aF0.0
aF0.0
aF0.0
aF0.0
aF0.0
aF0.0
asS'Bacteria.TM7'
p405
(lp406
F0.0
aF0.0
aF0.0
aF113.84335154844722
aF0.0
aF0.0
aF0.0
aF0.0
aF0.0
aF0.0
aF0.0
aF0.0
aF0.0
aF0.0
aF0.0
aF0.0
aF252.20680958400001
aF0.0
aF0.0
aF0.0
aF0.0
aF0.0
aF0.0
aF0.0
aF0.0
aF0.0
aF0.0
aF0.0
aF97.81864423360588
aF0.0
asS'Bacteria.Proteobacteria.Gammaproteobacteria.Chromatiales'
p407
(lp408
F0.0
aF0.0
aF0.0
aF0.0
aF0.0
aF0.0
aF0.0
aF0.0
aF0.0
aF0.0
aF0.0
aF0.0
aF0.0
aF0.0
aF0.0
aF0.0
aF0.0
aF0.0
aF0.0
aF0.0
aF0.0
aF0.0
aF0.0
aF0.0
aF0.0
aF0.0
aF0.0
aF0.0
aF0.0
aF0.0
asS'Bacteria.Firmicutes.Clostridia.Clostridiales.Lachnospiraceae.Sporobacterium'
p409
(lp410
F138.10247203375499
aF0.0
aF0.0
aF0.0
aF0.0
aF0.0
aF0.0
aF0.0
aF0.0
aF0.0
aF0.0
aF90.975254730686601
aF0.0
aF0.0
aF0.0
aF0.0
aF0.0
aF0.0
aF0.0
aF0.0
aF0.0
aF0.0
aF0.0
aF0.0
aF0.0
aF95.950873152973074
aF0.0
aF0.0
aF0.0
aF0.0
asS'Bacteria.Proteobacteria.Gammaproteobacteria.Enterobacteriales.Enterobacteriaceae'
p411
(lp412
F0.0
aF0.0
aF1792.5430210328589
aF341.53005464534164
aF244.91795248551233
aF0.0
aF0.0
aF0.0
aF0.0
aF96.702446571944421
aF108.45986984800001
aF818.77729257677947
aF0.0
aF497.90878311133156
aF551.51114052478056
aF174.48961786732468
aF126.10340479200001
aF236.99490460999999
aF183.35166850061725
aF436.20501635776895
aF0.0
aF454.89006823400001
aF1127.0780501548661
aF0.0
aF30112.762685819001
aF863.55785837645772
aF348.06822137099999
aF161.89088554338815
aF0.0
aF241.25452352257804
asS'Bacteria.Firmicutes.Bacilli.Lactobacillales.Carnobacteriaceae.Atopostipes'
p413
(lp414
F0.0
aF0.0
aF0.0
aF0.0
aF0.0
aF0.0
aF0.0
aF0.0
aF0.0
aF0.0
aF0.0
aF0.0
aF0.0
aF0.0
aF0.0
aF0.0
aF0.0
aF0.0
aF0.0
aF0.0
aF0.0
aF0.0
aF0.0
aF0.0
aF0.0
aF0.0
aF0.0
aF0.0
aF0.0
aF0.0
asS'Bacteria.Bacteroidetes.Bacteroidia.Bacteroidales.Marinilabiaceae.Alkaliflexus'
p415
(lp416
F0.0
aF0.0
aF0.0
aF0.0
aF0.0
aF0.0
aF0.0
aF0.0
aF0.0
aF0.0
aF0.0
aF0.0
aF0.0
aF0.0
aF0.0
aF0.0
aF0.0
aF0.0
aF0.0
aF0.0
aF0.0
aF0.0
aF0.0
aF0.0
aF0.0
aF0.0
aF0.0
aF0.0
aF0.0
aF0.0
asS'Bacteria.Firmicutes.Erysipelotrichi'
p417
(lp418
F0.0
aF0.0
aF478.01147227509546
aF0.0
aF0.0
aF148.65467519000001
aF0.0
aF0.0
aF0.0
aF580.21467943166647
aF0.0
aF0.0
aF0.0
aF0.0
aF0.0
aF261.7344268014877
aF0.0
aF0.0
aF0.0
aF0.0
aF0.0
aF0.0
aF0.0
aF0.0
aF0.0
aF0.0
aF0.0
aF242.83632831508226
aF0.0
aF0.0
asS'Bacteria.Firmicutes.Erysipelotrichi.Erysipelotrichales.Erysipelotrichaceae.Coprobacillus'
p419
(lp420
F0.0
aF0.0
aF0.0
aF0.0
aF0.0
aF0.0
aF0.0
aF0.0
aF0.0
aF290.10733971583323
aF0.0
aF0.0
aF0.0
aF0.0
aF0.0
aF0.0
aF0.0
aF0.0
aF0.0
aF0.0
aF0.0
aF0.0
aF0.0
aF0.0
aF0.0
aF0.0
aF0.0
aF0.0
aF0.0
aF0.0
asS'Archaea.Euryarchaeota.Methanopyri'
p421
(lp422
F0.0
aF0.0
aF0.0
aF0.0
aF0.0
aF0.0
aF0.0
aF0.0
aF0.0
aF0.0
aF0.0
aF0.0
aF0.0
aF0.0
aF0.0
aF0.0
aF0.0
aF0.0
aF0.0
aF0.0
aF0.0
aF0.0
aF0.0
aF0.0
aF0.0
aF0.0
aF0.0
aF0.0
aF0.0
aF0.0
asS'Bacteria.Proteobacteria.Gammaproteobacteria.Pseudomonadales.Moraxellaceae'
p423
(lp424
F0.0
aF0.0
aF0.0
aF0.0
aF0.0
aF0.0
aF0.0
aF0.0
aF0.0
aF0.0
aF0.0
aF0.0
aF0.0
aF0.0
aF0.0
aF0.0
aF0.0
aF0.0
aF0.0
aF0.0
aF0.0
aF0.0
aF0.0
aF0.0
aF128.1394156837612
aF0.0
aF0.0
aF0.0
aF0.0
aF0.0
asS'Bacteria.Proteobacteria.Deltaproteobacteria.Desulfovibrionales.Desulfohalobiaceae.Desulfohalobium'
p425
(lp426
F0.0
aF0.0
aF0.0
aF0.0
aF0.0
aF0.0
aF0.0
aF0.0
aF0.0
aF0.0
aF0.0
aF0.0
aF0.0
aF0.0
aF0.0
aF0.0
aF0.0
aF0.0
aF0.0
aF0.0
aF0.0
aF0.0
aF0.0
aF0.0
aF0.0
aF0.0
aF0.0
aF0.0
aF0.0
aF0.0
asS'Bacteria.Proteobacteria.Alphaproteobacteria.Sphingomonadales.Sphingomonadaceae'
p427
(lp428
F0.0
aF0.0
aF0.0
aF0.0
aF0.0
aF0.0
aF96.767950454752892
aF0.0
aF0.0
aF0.0
aF0.0
aF0.0
aF0.0
aF0.0
aF0.0
aF0.0
aF0.0
aF0.0
aF0.0
aF0.0
aF0.0
aF0.0
aF0.0
aF0.0
aF0.0
aF0.0
aF0.0
aF0.0
aF0.0
aF0.0
asS'Bacteria.Actinobacteria.Actinobacteria.Actinomycetales.Glycomycetaceae'
p429
(lp430
F0.0
aF0.0
aF0.0
aF0.0
aF0.0
aF0.0
aF0.0
aF0.0
aF0.0
aF0.0
aF0.0
aF0.0
aF0.0
aF0.0
aF0.0
aF0.0
aF0.0
aF0.0
aF0.0
aF0.0
aF0.0
aF0.0
aF0.0
aF0.0
aF0.0
aF0.0
aF0.0
aF0.0
aF0.0
aF0.0
asS'Bacteria.Firmicutes.Clostridia.Clostridiales.Ruminococcaceae.Anaerotruncus'
p431
(lp432
F414.30741610226528
aF0.0
aF239.00573613804806
aF910.74681238657752
aF244.91795248551233
aF445.964025569
aF967.67950454752906
aF586.33831720848718
aF348.91835310560447
aF773.61957257555537
aF542.29934924099996
aF636.82678311460631
aF242.39486122879754
aF298.74526986679894
aF661.81336863033698
aF436.22404466981368
aF1134.9306431300001
aF1540.4668799599999
aF916.75834250108585
aF1090.5125408994288
aF616.64953751240773
aF303.26004548899999
aF845.30853761614969
aF675.59959463968039
aF128.1394156837612
aF959.50873152973077
aF348.06822137099999
aF1457.0179698844911
aF1858.5542404348114
aF1930.0361881766212
asS'Bacteria.Firmicutes.Clostridia.Clostridiales.Ruminococcaceae.Faecalibacterium'
p433
(lp434
F0.0
aF0.0
aF0.0
aF0.0
aF0.0
aF0.0
aF0.0
aF0.0
aF0.0
aF0.0
aF0.0
aF0.0
aF0.0
aF0.0
aF0.0
aF261.7344268014877
aF0.0
aF0.0
aF0.0
aF0.0
aF0.0
aF0.0
aF0.0
aF0.0
aF0.0
aF0.0
aF0.0
aF0.0
aF0.0
aF0.0
asS'Bacteria.Firmicutes.Erysipelotrichi.Erysipelotrichales.Erysipelotrichaceae.Allobaculum'
p435
(lp436
F0.0
aF0.0
aF0.0
aF0.0
aF0.0
aF0.0
aF0.0
aF0.0
aF0.0
aF0.0
aF0.0
aF0.0
aF0.0
aF0.0
aF0.0
aF0.0
aF0.0
aF0.0
aF0.0
aF0.0
aF0.0
aF0.0
aF0.0
aF0.0
aF0.0
aF0.0
aF0.0
aF0.0
aF0.0
aF0.0
asS'Archaea.Crenarchaeota.Thermoprotei'
p437
(lp438
F0.0
aF0.0
aF0.0
aF0.0
aF0.0
aF0.0
aF0.0
aF0.0
aF0.0
aF0.0
aF0.0
aF0.0
aF0.0
aF0.0
aF0.0
aF0.0
aF0.0
aF0.0
aF0.0
aF0.0
aF0.0
aF0.0
aF0.0
aF0.0
aF0.0
aF0.0
aF0.0
aF0.0
aF0.0
aF0.0
asS'Bacteria.Actinobacteria.Actinobacteria.Actinomycetales.Corynebacteriaceae.Corynebacterium'
p439
(lp440
F276.20494406851031
aF0.0
aF0.0
aF227.68670309689443
aF0.0
aF0.0
aF387.07180181961161
aF0.0
aF0.0
aF0.0
aF0.0
aF545.85152838451961
aF0.0
aF0.0
aF0.0
aF0.0
aF0.0
aF0.0
aF0.0
aF436.20501635776895
aF0.0
aF0.0
aF0.0
aF0.0
aF256.2788313685233
aF0.0
aF0.0
aF161.89088554338815
aF195.63728846761182
aF482.50904704515608
asS'Bacteria.Proteobacteria.Epsilonproteobacteria.Campylobacterales.Helicobacteraceae.Sulfurimonas'
p441
(lp442
F0.0
aF0.0
aF0.0
aF0.0
aF0.0
aF0.0
aF0.0
aF0.0
aF0.0
aF0.0
aF0.0
aF0.0
aF0.0
aF0.0
aF0.0
aF0.0
aF0.0
aF0.0
aF0.0
aF0.0
aF0.0
aF0.0
aF0.0
aF0.0
aF0.0
aF0.0
aF0.0
aF0.0
aF0.0
aF0.0
asS'Bacteria.Bacteroidetes.Bacteroidia.Bacteroidales.Porphyromonadaceae.Proteiniphilum'
p443
(lp444
F0.0
aF0.0
aF0.0
aF0.0
aF0.0
aF0.0
aF0.0
aF0.0
aF0.0
aF0.0
aF0.0
aF0.0
aF0.0
aF0.0
aF0.0
aF0.0
aF0.0
aF0.0
aF0.0
aF0.0
aF0.0
aF0.0
aF0.0
aF0.0
aF0.0
aF0.0
aF0.0
aF0.0
aF0.0
aF0.0
asS'Bacteria.Bacteroidetes.Bacteroidia.Bacteroidales'
p445
(lp446
F147907.74754850072
aF452395.269593
aF104086.99808768317
aF263775.04553709709
aF75189.811413224699
aF492641.59357799997
aF158312.36694393013
aF140574.61155114733
aF378576.41311898554
aF501015.37568928703
aF176681.12798300001
aF100800.58224144793
aF49084.959398828993
aF152559.25114520398
aF188396.20560295371
aF293317.04763588298
aF116519.546028
aF104396.255481
aF170333.70003693239
aF103162.48636905994
aF7810.8941418244985
aF184382.10765699999
aF15919.977458394971
aF42337.574597439983
aF206945.15633009007
aF65534.446363467512
aF113354.217427
aF60304.354864822046
aF34432.162770259674
aF99155.609167676492
asS'Bacteria.Firmicutes.Clostridia.Clostridiales.Heliobacteriaceae'
p447
(lp448
F0.0
aF0.0
aF0.0
aF0.0
aF0.0
aF0.0
aF0.0
aF0.0
aF0.0
aF0.0
aF0.0
aF0.0
aF0.0
aF0.0
aF0.0
aF0.0
aF0.0
aF0.0
aF0.0
aF0.0
aF0.0
aF0.0
aF0.0
aF0.0
aF0.0
aF0.0
aF0.0
aF0.0
aF0.0
aF0.0
asS'Bacteria.Fusobacteria.Fusobacteria'
p449
(lp450
F0.0
aF0.0
aF0.0
aF0.0
aF0.0
aF0.0
aF0.0
aF0.0
aF0.0
aF0.0
aF0.0
aF0.0
aF0.0
aF0.0
aF0.0
aF0.0
aF0.0
aF0.0
aF0.0
aF0.0
aF0.0
aF0.0
aF0.0
aF0.0
aF0.0
aF0.0
aF0.0
aF0.0
aF0.0
aF0.0
asS'Bacteria.Proteobacteria.Betaproteobacteria.Burkholderiales.Burkholderiales_incertae_sedis.Tepidimonas'
p451
(lp452
F0.0
aF0.0
aF0.0
aF0.0
aF0.0
aF0.0
aF0.0
aF0.0
aF0.0
aF0.0
aF0.0
aF0.0
aF0.0
aF0.0
aF0.0
aF0.0
aF0.0
aF0.0
aF0.0
aF0.0
aF0.0
aF0.0
aF0.0
aF0.0
aF0.0
aF0.0
aF0.0
aF0.0
aF0.0
aF0.0
asS'Bacteria.Bacteroidetes.Bacteroidia.Bacteroidales.Marinilabiaceae'
p453
(lp454
F0.0
aF0.0
aF0.0
aF0.0
aF0.0
aF0.0
aF0.0
aF0.0
aF0.0
aF0.0
aF0.0
aF0.0
aF0.0
aF0.0
aF0.0
aF0.0
aF0.0
aF0.0
aF0.0
aF0.0
aF0.0
aF0.0
aF0.0
aF0.0
aF0.0
aF0.0
aF0.0
aF0.0
aF0.0
aF0.0
asS'Archaea.Euryarchaeota.Halobacteria'
p455
(lp456
F0.0
aF0.0
aF0.0
aF0.0
aF0.0
aF0.0
aF0.0
aF0.0
aF0.0
aF0.0
aF0.0
aF0.0
aF0.0
aF0.0
aF0.0
aF0.0
aF0.0
aF0.0
aF0.0
aF0.0
aF0.0
aF0.0
aF0.0
aF0.0
aF0.0
aF0.0
aF0.0
aF0.0
aF0.0
aF0.0
asS'Bacteria.Proteobacteria.Gammaproteobacteria.Pasteurellales.Pasteurellaceae'
p457
(lp458
F0.0
aF0.0
aF0.0
aF0.0
aF0.0
aF0.0
aF0.0
aF0.0
aF0.0
aF0.0
aF0.0
aF0.0
aF0.0
aF0.0
aF0.0
aF0.0
aF0.0
aF0.0
aF0.0
aF0.0
aF0.0
aF0.0
aF0.0
aF0.0
aF0.0
aF0.0
aF0.0
aF0.0
aF0.0
aF0.0
asS'Bacteria.Aquificae'
p459
(lp460
F0.0
aF0.0
aF0.0
aF0.0
aF0.0
aF0.0
aF0.0
aF0.0
aF0.0
aF0.0
aF0.0
aF0.0
aF0.0
aF0.0
aF0.0
aF0.0
aF0.0
aF0.0
aF0.0
aF0.0
aF0.0
aF0.0
aF0.0
aF0.0
aF0.0
aF0.0
aF0.0
aF0.0
aF0.0
aF0.0
asS'Bacteria.Firmicutes.Clostridia.Clostridiales.Peptococcaceae'
p461
(lp462
F0.0
aF0.0
aF0.0
aF0.0
aF0.0
aF0.0
aF387.07180181961161
aF732.92289651110889
aF0.0
aF0.0
aF0.0
aF90.975254730686601
aF0.0
aF99.581756622166296
aF0.0
aF0.0
aF0.0
aF0.0
aF0.0
aF0.0
aF0.0
aF0.0
aF0.0
aF0.0
aF128.1394156837612
aF0.0
aF0.0
aF0.0
aF0.0
aF0.0
asS'Bacteria.Fusobacteria.Fusobacteria.Fusobacteriales'
p463
(lp464
F0.0
aF0.0
aF0.0
aF0.0
aF0.0
aF0.0
aF0.0
aF0.0
aF0.0
aF0.0
aF0.0
aF0.0
aF0.0
aF0.0
aF0.0
aF0.0
aF0.0
aF0.0
aF0.0
aF0.0
aF0.0
aF0.0
aF0.0
aF0.0
aF0.0
aF0.0
aF0.0
aF0.0
aF0.0
aF0.0
asS'Bacteria.Firmicutes.Bacilli.Lactobacillales.Enterococcaceae'
p465
(lp466
F0.0
aF0.0
aF0.0
aF0.0
aF0.0
aF148.65467519000001
aF0.0
aF0.0
aF0.0
aF96.702446571944421
aF0.0
aF0.0
aF0.0
aF0.0
aF0.0
aF0.0
aF0.0
aF0.0
aF0.0
aF0.0
aF0.0
aF0.0
aF0.0
aF0.0
aF4228.600717577131
aF0.0
aF0.0
aF0.0
aF0.0
aF0.0
asS'Bacteria.Bacteroidetes.Bacteroidia.Bacteroidales.Porphyromonadaceae.Odoribacter'
p467
(lp468
F0.0
aF0.0
aF0.0
aF0.0
aF0.0
aF0.0
aF0.0
aF0.0
aF0.0
aF0.0
aF0.0
aF0.0
aF0.0
aF0.0
aF0.0
aF0.0
aF0.0
aF0.0
aF0.0
aF0.0
aF0.0
aF0.0
aF0.0
aF0.0
aF0.0
aF0.0
aF0.0
aF0.0
aF0.0
aF0.0
asS'Bacteria.Actinobacteria.Actinobacteria.Bifidobacteriales.Bifidobacteriaceae.Alloscardovia'
p469
(lp470
F0.0
aF801.76388053700009
aF0.0
aF113.84335154844722
aF0.0
aF148.65467519000001
aF0.0
aF0.0
aF0.0
aF0.0
aF0.0
aF0.0
aF0.0
aF0.0
aF0.0
aF0.0
aF0.0
aF0.0
aF0.0
aF0.0
aF0.0
aF0.0
aF0.0
aF0.0
aF0.0
aF0.0
aF0.0
aF0.0
aF0.0
aF0.0
asS'Bacteria.Actinobacteria.Actinobacteria.Actinomycetales.Micrococcaceae'
p471
(lp472
F0.0
aF0.0
aF0.0
aF0.0
aF0.0
aF0.0
aF0.0
aF0.0
aF0.0
aF0.0
aF0.0
aF0.0
aF0.0
aF0.0
aF0.0
aF0.0
aF0.0
aF0.0
aF0.0
aF0.0
aF0.0
aF0.0
aF0.0
aF0.0
aF0.0
aF0.0
aF0.0
aF0.0
aF0.0
aF0.0
asS'Bacteria.Deinococcus_Thermus.Deinococci.Thermales.Thermaceae.Marinithermus'
p473
(lp474
F0.0
aF0.0
aF0.0
aF0.0
aF0.0
aF0.0
aF0.0
aF0.0
aF0.0
aF0.0
aF0.0
aF0.0
aF0.0
aF0.0
aF0.0
aF0.0
aF0.0
aF0.0
aF0.0
aF0.0
aF0.0
aF0.0
aF0.0
aF0.0
aF0.0
aF0.0
aF0.0
aF0.0
aF0.0
aF0.0
asS'Bacteria.Proteobacteria.Epsilonproteobacteria.Campylobacterales'
p475
(lp476
F35216.130368752565
aF34676.287833199996
aF42901.529636671061
aF48155.737704948166
aF7837.374479556679
aF11297.755314399999
aF61350.880588316933
aF20521.841102347054
aF33496.161898166043
aF43709.505850474845
aF38503.253796099998
aF30021.834061148584
aF20118.773482027282
aF24995.020912119831
aF53937.78954337896
aF33240.272203829991
aF58638.083228199997
aF44910.534423500001
aF15584.891822487454
aF38604.143947665558
aF42548.818088387146
aF27899.924184999996
aF86503.240349370972
aF38509.176894476797
aF23065.094823157087
aF13529.073114525496
aF22276.366167799999
aF46219.8478225953
aF31791.059375974419
aF45355.850422220654
asS'Bacteria.Firmicutes.Erysipelotrichi.Erysipelotrichales.Erysipelotrichaceae.Holdemania'
p477
(lp478
F0.0
aF0.0
aF358.50860420657176
aF0.0
aF0.0
aF148.65467519000001
aF0.0
aF0.0
aF0.0
aF193.40489314388884
aF0.0
aF0.0
aF0.0
aF0.0
aF0.0
aF87.2448089338626
aF0.0
aF0.0
aF0.0
aF0.0
aF0.0
aF0.0
aF0.0
aF0.0
aF0.0
aF0.0
aF0.0
aF161.89088554338815
aF0.0
aF0.0
asS'Bacteria.Firmicutes.Bacilli.Lactobacillales.Lactobacillaceae.Pediococcus'
p479
(lp480
F0.0
aF0.0
aF0.0
aF0.0
aF0.0
aF0.0
aF0.0
aF0.0
aF0.0
aF0.0
aF0.0
aF0.0
aF0.0
aF0.0
aF0.0
aF0.0
aF0.0
aF0.0
aF0.0
aF0.0
aF0.0
aF0.0
aF0.0
aF0.0
aF0.0
aF0.0
aF0.0
aF0.0
aF0.0
aF0.0
asS'Bacteria.Firmicutes.Bacilli'
p481
(lp482
F22786.907885604585
aF46502.305071199997
aF497848.94837432436
aF48838.797814248843
aF28410.482488380283
aF204102.86903500001
aF98316.237662035346
aF62298.446203389256
aF49197.487787903236
aF19050.381974664044
aF138177.87418700001
aF27201.601164481894
aF35874.439461833972
aF15634.335789712813
aF140966.24751862494
aF54266.27115691721
aF49936.9482976
aF71098.471382899996
aF76640.997433135984
aF48418.756815670291
aF14594.039054469988
aF331159.96967399999
aF50436.742744475276
aF6530.7960815219149
aF32419.272168084663
aF65534.446363467512
aF298062.42023400002
aF11818.034644675339
aF34040.888193254446
aF29191.797346198917
asS'Bacteria.Firmicutes.Bacilli.Bacillales.Staphylococcaceae.Jeotgalicoccus'
p483
(lp484
F0.0
aF0.0
aF0.0
aF0.0
aF0.0
aF0.0
aF0.0
aF0.0
aF0.0
aF0.0
aF0.0
aF0.0
aF0.0
aF0.0
aF0.0
aF0.0
aF0.0
aF0.0
aF0.0
aF0.0
aF0.0
aF0.0
aF0.0
aF0.0
aF0.0
aF0.0
aF0.0
aF0.0
aF0.0
aF0.0
asS'Bacteria.Proteobacteria.Alphaproteobacteria.Sphingomonadales'
p485
(lp486
F0.0
aF0.0
aF0.0
aF0.0
aF0.0
aF0.0
aF96.767950454752892
aF0.0
aF0.0
aF0.0
aF0.0
aF0.0
aF0.0
aF0.0
aF0.0
aF0.0
aF0.0
aF0.0
aF0.0
aF0.0
aF0.0
aF0.0
aF0.0
aF0.0
aF0.0
aF0.0
aF0.0
aF0.0
aF0.0
aF0.0
asS'Bacteria.Proteobacteria.Betaproteobacteria.Burkholderiales.Alcaligenaceae.Parasutterella'
p487
(lp488
F414.30741610226528
aF5011.0242533600003
aF7409.1778202664818
aF11156.64845177783
aF489.83590497203886
aF10851.791288799999
aF5225.4693245582566
aF3957.7836411597882
aF2791.3468248388326
aF6575.766366886216
aF759.21908893700004
aF2911.2081513807711
aF121.19743061489991
aF995.8175662216629
aF4742.9958085129128
aF21287.733379871686
aF10340.4791929
aF7346.8420429000007
aF5867.2533920117503
aF2181.0250817888445
aF0.0
aF18347.232752100001
aF140.8847562698584
aF562.99966220023407
aF2434.6488980004706
aF2494.7227019791003
aF10558.069381599998
aF1861.7451837429614
aF293.45593270091769
aF1206.2726176078866
asS'Bacteria.Firmicutes.Bacilli.Bacillales.Thermoactinomycetaceae.Desmospora'
p489
(lp490
F0.0
aF0.0
aF0.0
aF0.0
aF0.0
aF0.0
aF0.0
aF0.0
aF0.0
aF0.0
aF0.0
aF0.0
aF0.0
aF0.0
aF0.0
aF0.0
aF0.0
aF0.0
aF0.0
aF0.0
aF0.0
aF0.0
aF0.0
aF0.0
aF0.0
aF0.0
aF0.0
aF0.0
aF0.0
aF0.0
asS'Bacteria.Bacteroidetes.Bacteroidia.Bacteroidales.Prevotellaceae'
p491
(lp492
F0.0
aF0.0
aF0.0
aF0.0
aF0.0
aF297.30935037899997
aF96.767950454752892
aF0.0
aF174.45917655230195
aF193.40489314388884
aF0.0
aF0.0
aF484.78972245759508
aF199.1635132445326
aF0.0
aF87.2448089338626
aF0.0
aF0.0
aF0.0
aF0.0
aF0.0
aF0.0
aF0.0
aF0.0
aF0.0
aF0.0
aF0.0
aF0.0
aF0.0
aF0.0
asS'Bacteria.Actinobacteria.Actinobacteria.Coriobacteriales.Coriobacteriaceae.Adlercreutzia'
p493
(lp494
F0.0
aF0.0
aF0.0
aF0.0
aF0.0
aF0.0
aF0.0
aF0.0
aF0.0
aF0.0
aF0.0
aF0.0
aF0.0
aF0.0
aF0.0
aF0.0
aF0.0
aF0.0
aF183.35166850061725
aF0.0
aF0.0
aF0.0
aF0.0
aF0.0
aF0.0
aF0.0
aF0.0
aF0.0
aF0.0
aF0.0
asS'Bacteria.Firmicutes.Bacilli.Lactobacillales.Enterococcaceae.Melissococcus'
p495
(lp496
F0.0
aF0.0
aF0.0
aF0.0
aF0.0
aF0.0
aF0.0
aF0.0
aF0.0
aF0.0
aF0.0
aF0.0
aF0.0
aF0.0
aF0.0
aF0.0
aF0.0
aF0.0
aF0.0
aF0.0
aF0.0
aF0.0
aF0.0
aF0.0
aF0.0
aF0.0
aF0.0
aF0.0
aF0.0
aF0.0
asS'Bacteria.Bacteroidetes.Bacteroidia.Bacteroidales.Bacteroidales_incertae_sedis.Phocaeicola'
p497
(lp498
F0.0
aF0.0
aF0.0
aF0.0
aF0.0
aF0.0
aF0.0
aF0.0
aF0.0
aF0.0
aF0.0
aF0.0
aF0.0
aF0.0
aF0.0
aF0.0
aF0.0
aF0.0
aF0.0
aF0.0
aF0.0
aF0.0
aF0.0
aF0.0
aF0.0
aF0.0
aF0.0
aF0.0
aF0.0
aF0.0
asS'Bacteria.Chloroflexi.Thermomicrobia'
p499
(lp500
F0.0
aF0.0
aF0.0
aF0.0
aF0.0
aF0.0
aF0.0
aF0.0
aF0.0
aF0.0
aF0.0
aF0.0
aF0.0
aF0.0
aF0.0
aF0.0
aF0.0
aF0.0
aF0.0
aF0.0
aF0.0
aF0.0
aF0.0
aF0.0
aF0.0
aF0.0
aF0.0
aF0.0
aF0.0
aF0.0
asS'Bacteria.Proteobacteria.Gammaproteobacteria.Oceanospirillales'
p501
(lp502
F0.0
aF0.0
aF0.0
aF0.0
aF0.0
aF0.0
aF0.0
aF0.0
aF0.0
aF0.0
aF0.0
aF0.0
aF0.0
aF0.0
aF0.0
aF0.0
aF0.0
aF0.0
aF0.0
aF0.0
aF0.0
aF0.0
aF0.0
aF0.0
aF0.0
aF0.0
aF0.0
aF0.0
aF0.0
aF0.0
asS'Bacteria.Firmicutes.Clostridia.Clostridiales'
p503
(lp504
F676978.31791160558
aF219683.30326699998
aF271032.50478010427
aF371015.48269620445
aF444526.08376237121
aF93057.826668600013
aF502515.96671188407
aF548079.74201129586
aF403872.99371913431
aF261290.01063749992
aF537635.57483699999
aF729257.64192159835
aF755181.19015852362
aF661521.60924099793
aF466578.42488384229
aF537515.2678421106
aF669230.76923099998
aF671525.06221100001
aF661716.17161686625
aF743511.45038176805
aF843987.66700921382
aF335860.50037900003
aF773175.54240655829
aF859925.68404447625
aF596745.25884189527
aF788044.52120553376
aF495649.14723299997
aF800307.59268256486
aF803775.79966808052
aF693848.0096499857
asS'Bacteria.Firmicutes.Bacilli.Bacillales.Paenibacillaceae.Saccharibacillus'
p505
(lp506
F0.0
aF0.0
aF0.0
aF0.0
aF0.0
aF0.0
aF0.0
aF0.0
aF0.0
aF0.0
aF0.0
aF0.0
aF0.0
aF0.0
aF0.0
aF0.0
aF0.0
aF0.0
aF0.0
aF0.0
aF0.0
aF0.0
aF0.0
aF0.0
aF0.0
aF0.0
aF0.0
aF0.0
aF0.0
aF0.0
asS'Bacteria.Firmicutes.Bacilli.Lactobacillales.Aerococcaceae.Dolosicoccus'
p507
(lp508
F0.0
aF0.0
aF0.0
aF0.0
aF0.0
aF0.0
aF0.0
aF0.0
aF0.0
aF0.0
aF0.0
aF0.0
aF0.0
aF0.0
aF0.0
aF0.0
aF0.0
aF0.0
aF0.0
aF0.0
aF0.0
aF0.0
aF0.0
aF0.0
aF0.0
aF0.0
aF0.0
aF0.0
aF0.0
aF0.0
asS'Bacteria.Firmicutes.Bacilli.Lactobacillales.Streptococcaceae.Lactococcus'
p509
(lp510
F0.0
aF0.0
aF0.0
aF0.0
aF0.0
aF0.0
aF0.0
aF0.0
aF0.0
aF0.0
aF108.45986984800001
aF0.0
aF0.0
aF0.0
aF0.0
aF0.0
aF0.0
aF118.497452305
aF0.0
aF0.0
aF0.0
aF0.0
aF0.0
aF0.0
aF0.0
aF0.0
aF0.0
aF0.0
aF0.0
aF0.0
asS'Bacteria.Bacteroidetes.Bacteroidia.Bacteroidales.Prevotellaceae.Hallella'
p511
(lp512
F0.0
aF0.0
aF0.0
aF0.0
aF0.0
aF0.0
aF0.0
aF0.0
aF0.0
aF0.0
aF0.0
aF0.0
aF0.0
aF0.0
aF0.0
aF0.0
aF0.0
aF0.0
aF0.0
aF0.0
aF0.0
aF0.0
aF0.0
aF0.0
aF0.0
aF0.0
aF0.0
aF0.0
aF0.0
aF0.0
asS'Bacteria.Firmicutes.Bacilli.Lactobacillales.Carnobacteriaceae.Desemzia'
p513
(lp514
F0.0
aF0.0
aF0.0
aF0.0
aF0.0
aF0.0
aF0.0
aF0.0
aF0.0
aF0.0
aF0.0
aF0.0
aF0.0
aF0.0
aF0.0
aF0.0
aF0.0
aF0.0
aF0.0
aF0.0
aF0.0
aF0.0
aF0.0
aF0.0
aF0.0
aF0.0
aF0.0
aF0.0
aF0.0
aF0.0
asS'Bacteria.Proteobacteria.Betaproteobacteria.Burkholderiales.Oxalobacteraceae.Janthinobacterium'
p515
(lp516
F0.0
aF0.0
aF0.0
aF0.0
aF0.0
aF0.0
aF0.0
aF0.0
aF0.0
aF0.0
aF0.0
aF0.0
aF0.0
aF0.0
aF0.0
aF0.0
aF0.0
aF0.0
aF0.0
aF0.0
aF0.0
aF0.0
aF0.0
aF0.0
aF384.41824705228447
aF0.0
aF0.0
aF0.0
aF0.0
aF0.0
asS'Bacteria.Actinobacteria.Actinobacteria.Actinomycetales.Microbacteriaceae.Frigoribacterium'
p517
(lp518
F0.0
aF0.0
aF0.0
aF0.0
aF0.0
aF0.0
aF0.0
aF0.0
aF0.0
aF0.0
aF0.0
aF0.0
aF0.0
aF0.0
aF0.0
aF0.0
aF0.0
aF0.0
aF0.0
aF0.0
aF0.0
aF0.0
aF0.0
aF0.0
aF0.0
aF0.0
aF0.0
aF0.0
aF0.0
aF0.0
asS'Archaea.Euryarchaeota.Halobacteria.Halobacteriales'
p519
(lp520
F0.0
aF0.0
aF0.0
aF0.0
aF0.0
aF0.0
aF0.0
aF0.0
aF0.0
aF0.0
aF0.0
aF0.0
aF0.0
aF0.0
aF0.0
aF0.0
aF0.0
aF0.0
aF0.0
aF0.0
aF0.0
aF0.0
aF0.0
aF0.0
aF0.0
aF0.0
aF0.0
aF0.0
aF0.0
aF0.0
asS'Bacteria.Firmicutes.Clostridia.Clostridiales.Peptostreptococcaceae.Peptostreptococcus'
p521
(lp522
F0.0
aF0.0
aF0.0
aF0.0
aF0.0
aF0.0
aF0.0
aF0.0
aF0.0
aF0.0
aF0.0
aF0.0
aF0.0
aF0.0
aF0.0
aF0.0
aF0.0
aF0.0
aF0.0
aF0.0
aF0.0
aF0.0
aF0.0
aF0.0
aF128.1394156837612
aF0.0
aF0.0
aF0.0
aF0.0
aF0.0
asS'Bacteria.Firmicutes.Clostridia.Clostridiales.Eubacteriaceae.Pseudoramibacter'
p523
(lp524
F0.0
aF0.0
aF0.0
aF0.0
aF0.0
aF0.0
aF0.0
aF0.0
aF0.0
aF0.0
aF0.0
aF0.0
aF0.0
aF0.0
aF0.0
aF0.0
aF0.0
aF0.0
aF0.0
aF0.0
aF0.0
aF0.0
aF0.0
aF0.0
aF0.0
aF0.0
aF0.0
aF0.0
aF0.0
aF0.0
asS'Archaea.Euryarchaeota.Halobacteria.Halobacteriales.Halobacteriaceae'
p525
(lp526
F0.0
aF0.0
aF0.0
aF0.0
aF0.0
aF0.0
aF0.0
aF0.0
aF0.0
aF0.0
aF0.0
aF0.0
aF0.0
aF0.0
aF0.0
aF0.0
aF0.0
aF0.0
aF0.0
aF0.0
aF0.0
aF0.0
aF0.0
aF0.0
aF0.0
aF0.0
aF0.0
aF0.0
aF0.0
aF0.0
asS'Bacteria.Proteobacteria.Gammaproteobacteria.Enterobacteriales.Enterobacteriaceae.Klebsiella'
p527
(lp528
F0.0
aF0.0
aF0.0
aF0.0
aF0.0
aF0.0
aF0.0
aF0.0
aF0.0
aF0.0
aF0.0
aF0.0
aF0.0
aF0.0
aF0.0
aF0.0
aF0.0
aF0.0
aF0.0
aF0.0
aF0.0
aF0.0
aF0.0
aF0.0
aF128.1394156837612
aF0.0
aF0.0
aF0.0
aF0.0
aF0.0
asS'Bacteria.Proteobacteria.Deltaproteobacteria.Desulfobacterales'
p529
(lp530
F0.0
aF0.0
aF0.0
aF0.0
aF0.0
aF0.0
aF0.0
aF0.0
aF0.0
aF0.0
aF0.0
aF0.0
aF0.0
aF0.0
aF0.0
aF0.0
aF0.0
aF0.0
aF0.0
aF0.0
aF0.0
aF0.0
aF0.0
aF0.0
aF0.0
aF0.0
aF0.0
aF0.0
aF0.0
aF0.0
asS'Bacteria.Firmicutes.Bacilli.Lactobacillales.Carnobacteriaceae.Atopococcus'
p531
(lp532
F0.0
aF0.0
aF0.0
aF0.0
aF0.0
aF0.0
aF0.0
aF0.0
aF0.0
aF0.0
aF0.0
aF0.0
aF0.0
aF0.0
aF0.0
aF0.0
aF0.0
aF0.0
aF0.0
aF0.0
aF0.0
aF0.0
aF0.0
aF0.0
aF0.0
aF0.0
aF0.0
aF0.0
aF0.0
aF0.0
asS'Bacteria.Firmicutes.Bacilli.Bacillales.Thermoactinomycetaceae.Seinonella'
p533
(lp534
F0.0
aF0.0
aF0.0
aF0.0
aF0.0
aF0.0
aF0.0
aF0.0
aF0.0
aF0.0
aF0.0
aF0.0
aF0.0
aF0.0
aF0.0
aF0.0
aF0.0
aF0.0
aF0.0
aF0.0
aF0.0
aF0.0
aF0.0
aF0.0
aF0.0
aF0.0
aF0.0
aF0.0
aF0.0
aF0.0
asS'Bacteria.Proteobacteria.Alphaproteobacteria.Rhodospirillales'
p535
(lp536
F0.0
aF0.0
aF0.0
aF0.0
aF0.0
aF0.0
aF0.0
aF0.0
aF0.0
aF0.0
aF0.0
aF0.0
aF0.0
aF0.0
aF0.0
aF0.0
aF0.0
aF0.0
aF0.0
aF0.0
aF0.0
aF0.0
aF0.0
aF0.0
aF0.0
aF0.0
aF0.0
aF0.0
aF0.0
aF0.0
asS'Bacteria.Firmicutes.Clostridia.Clostridiales.Lachnospiraceae.Catonella'
p537
(lp538
F0.0
aF0.0
aF0.0
aF0.0
aF0.0
aF0.0
aF0.0
aF0.0
aF0.0
aF0.0
aF0.0
aF0.0
aF0.0
aF0.0
aF0.0
aF0.0
aF0.0
aF0.0
aF0.0
aF0.0
aF0.0
aF0.0
aF0.0
aF0.0
aF0.0
aF0.0
aF0.0
aF0.0
aF0.0
aF0.0
asS'Bacteria.Proteobacteria.Alphaproteobacteria.Rhodospirillales.Acetobacteraceae.Tanticharoenia'
p539
(lp540
F0.0
aF0.0
aF0.0
aF0.0
aF0.0
aF0.0
aF0.0
aF0.0
aF0.0
aF0.0
aF0.0
aF0.0
aF0.0
aF0.0
aF0.0
aF0.0
aF0.0
aF0.0
aF0.0
aF0.0
aF0.0
aF0.0
aF0.0
aF0.0
aF0.0
aF0.0
aF0.0
aF0.0
aF0.0
aF0.0
asS'Bacteria.Actinobacteria.Actinobacteria.Actinomycetales.Nocardioidaceae.Nocardioides'
p541
(lp542
F0.0
aF0.0
aF0.0
aF0.0
aF0.0
aF0.0
aF0.0
aF0.0
aF0.0
aF0.0
aF0.0
aF0.0
aF0.0
aF0.0
aF0.0
aF0.0
aF0.0
aF0.0
aF0.0
aF0.0
aF0.0
aF0.0
aF0.0
aF0.0
aF0.0
aF0.0
aF696.13644274299998
aF0.0
aF0.0
aF0.0
asS'Bacteria.Firmicutes.Clostridia.Clostridiales.Lachnospiraceae.Shuttleworthia'
p543
(lp544
F0.0
aF0.0
aF0.0
aF0.0
aF0.0
aF0.0
aF0.0
aF0.0
aF0.0
aF0.0
aF0.0
aF0.0
aF0.0
aF0.0
aF0.0
aF0.0
aF0.0
aF0.0
aF0.0
aF0.0
aF0.0
aF0.0
aF0.0
aF0.0
aF0.0
aF0.0
aF0.0
aF0.0
aF0.0
aF0.0
asS'Bacteria.Bacteroidetes.Flavobacteria.Flavobacteriales.Cryomorphaceae'
p545
(lp546
F0.0
aF0.0
aF0.0
aF0.0
aF0.0
aF0.0
aF0.0
aF0.0
aF0.0
aF0.0
aF0.0
aF0.0
aF0.0
aF0.0
aF0.0
aF0.0
aF0.0
aF0.0
aF0.0
aF0.0
aF0.0
aF0.0
aF0.0
aF0.0
aF0.0
aF0.0
aF0.0
aF0.0
aF0.0
aF0.0
asS'Bacteria.Actinobacteria.Actinobacteria.Coriobacteriales.Coriobacteriaceae.Eggerthella'
p547
(lp548
F138.10247203375499
aF0.0
aF0.0
aF569.21675774123594
aF489.83590497203886
aF594.61870075799993
aF96.767950454752892
aF146.58457930262185
aF0.0
aF0.0
aF433.83947939299998
aF90.975254730686601
aF242.39486122879754
aF398.32702648906519
aF1323.6267372626749
aF697.95847147130144
aF882.72383354400006
aF355.49235691399997
aF916.75834250108585
aF0.0
aF205.54984583780279
aF1364.6702047000001
aF140.8847562698584
aF112.59993244044718
aF256.2788313685233
aF0.0
aF348.06822137099999
aF242.83632831508226
aF782.5491538694472
aF0.0
asS'Bacteria.Firmicutes.Bacilli.Lactobacillales.Enterococcaceae.Bavariicoccus'
p549
(lp550
F0.0
aF0.0
aF0.0
aF0.0
aF0.0
aF0.0
aF0.0
aF0.0
aF0.0
aF0.0
aF0.0
aF0.0
aF0.0
aF0.0
aF0.0
aF0.0
aF0.0
aF0.0
aF0.0
aF0.0
aF0.0
aF0.0
aF0.0
aF0.0
aF0.0
aF0.0
aF0.0
aF0.0
aF0.0
aF0.0
asS'Bacteria.Actinobacteria.Actinobacteria.Coriobacteriales.Coriobacteriaceae.Asaccharobacter'
p551
(lp552
F276.20494406851031
aF0.0
aF119.50286806852372
aF569.21675774123594
aF0.0
aF297.30935037899997
aF677.3756531830702
aF439.75373790686541
aF523.37752965790651
aF193.40489314388884
aF976.138828633
aF636.82678311460631
aF2060.3563204462826
aF1792.4716191987932
aF4081.1824398815752
aF2704.5890769530452
aF2395.9646910500001
aF3317.9286645299999
aF733.40667400046857
aF218.10250817888448
aF0.0
aF3487.49052312
aF0.0
aF112.59993244044718
aF896.97590978933101
aF575.70523891763844
aF696.13644274299998
aF485.67265662916407
aF195.63728846761182
aF0.0
asS'Bacteria.Firmicutes.Clostridia.Clostridiales.Veillonellaceae.Propionispira'
p553
(lp554
F0.0
aF0.0
aF0.0
aF0.0
aF0.0
aF0.0
aF0.0
aF0.0
aF0.0
aF0.0
aF0.0
aF0.0
aF0.0
aF0.0
aF0.0
aF0.0
aF0.0
aF0.0
aF0.0
aF0.0
aF0.0
aF0.0
aF0.0
aF0.0
aF0.0
aF0.0
aF0.0
aF0.0
aF0.0
aF0.0
asS'Bacteria.Firmicutes.Bacilli.Bacillales'
p555
(lp556
F8009.9433779898
aF23852.475446
aF2868.0688336505732
aF11839.708560978503
aF5143.2770022059012
aF3419.05752936
aF8322.0437391131491
aF15537.965405999903
aF28611.30495468558
aF3384.5856300130513
aF2928.4164859000002
aF10280.203784581787
aF363.59229184369747
aF0.0
aF220.60445621011232
aF4972.9541092352756
aF13619.1677175
aF16352.6484181
aF18885.22185547656
aF4362.0501635776891
aF205.54984583780279
aF1819.5602729300001
aF2817.6951253871653
aF675.59959463968039
aF768.83649410556984
aF0.0
aF2784.5457709699999
aF404.72721385746996
aF782.5491538694472
aF482.50904704515608
asS'Bacteria.Firmicutes.Clostridia.Thermoanaerobacterales.Thermoanaerobacteraceae.Ammonifex'
p557
(lp558
F0.0
aF0.0
aF0.0
aF0.0
aF0.0
aF0.0
aF0.0
aF0.0
aF0.0
aF0.0
aF0.0
aF0.0
aF0.0
aF0.0
aF0.0
aF0.0
aF0.0
aF0.0
aF0.0
aF0.0
aF0.0
aF0.0
aF0.0
aF0.0
aF0.0
aF0.0
aF0.0
aF0.0
aF0.0
aF0.0
asS'Bacteria.Proteobacteria.Alphaproteobacteria.Rhodobacterales.Rhodobacteraceae.Rhodobacter'
p559
(lp560
F0.0
aF0.0
aF0.0
aF0.0
aF0.0
aF0.0
aF0.0
aF0.0
aF0.0
aF0.0
aF0.0
aF0.0
aF0.0
aF0.0
aF0.0
aF0.0
aF0.0
aF0.0
aF0.0
aF0.0
aF0.0
aF0.0
aF0.0
aF0.0
aF0.0
aF0.0
aF0.0
aF0.0
aF0.0
aF0.0
asS'Bacteria.Proteobacteria.Deltaproteobacteria.Desulfovibrionales.Desulfohalobiaceae.Desulfonatronovibrio'
p561
(lp562
F0.0
aF0.0
aF0.0
aF0.0
aF0.0
aF0.0
aF0.0
aF0.0
aF0.0
aF0.0
aF0.0
aF0.0
aF0.0
aF0.0
aF0.0
aF0.0
aF0.0
aF0.0
aF0.0
aF0.0
aF0.0
aF0.0
aF0.0
aF0.0
aF0.0
aF0.0
aF0.0
aF0.0
aF0.0
aF0.0
asS'Bacteria.Actinobacteria.Actinobacteria.Actinomycetales.Microbacteriaceae.Leucobacter'
p563
(lp564
F0.0
aF0.0
aF0.0
aF0.0
aF0.0
aF0.0
aF0.0
aF0.0
aF0.0
aF0.0
aF0.0
aF0.0
aF0.0
aF0.0
aF0.0
aF0.0
aF0.0
aF0.0
aF0.0
aF0.0
aF0.0
aF0.0
aF0.0
aF225.19986487989345
aF0.0
aF0.0
aF0.0
aF0.0
aF0.0
aF0.0
asS'Bacteria.Proteobacteria.Gammaproteobacteria.Thiotrichales.Thiotrichaceae.Thiothrix'
p565
(lp566
F0.0
aF0.0
aF0.0
aF0.0
aF0.0
aF0.0
aF0.0
aF0.0
aF0.0
aF0.0
aF0.0
aF0.0
aF0.0
aF0.0
aF0.0
aF0.0
aF0.0
aF0.0
aF0.0
aF0.0
aF0.0
aF0.0
aF0.0
aF0.0
aF0.0
aF0.0
aF0.0
aF0.0
aF0.0
aF482.50904704515608
asS'Bacteria.Bacteroidetes.Bacteroidia'
p567
(lp568
F147907.74754850072
aF452395.269593
aF104086.99808768317
aF263775.04553709709
aF75189.811413224699
aF492641.59357799997
aF158312.36694393013
aF140574.61155114733
aF378576.41311898554
aF501015.37568928703
aF176681.12798300001
aF100800.58224144793
aF49084.959398828993
aF152559.25114520398
aF188396.20560295371
aF293317.04763588298
aF116519.546028
aF104396.255481
aF170333.70003693239
aF103162.48636905994
aF7810.8941418244985
aF184382.10765699999
aF15919.977458394971
aF42337.574597439983
aF206945.15633009007
aF65534.446363467512
aF113354.217427
aF60304.354864822046
aF34432.162770259674
aF99155.609167676492
asS'Bacteria.Firmicutes.Bacilli.Bacillales.Thermoactinomycetaceae'
p569
(lp570
F0.0
aF0.0
aF0.0
aF0.0
aF0.0
aF0.0
aF0.0
aF0.0
aF0.0
aF0.0
aF0.0
aF0.0
aF0.0
aF0.0
aF0.0
aF0.0
aF0.0
aF0.0
aF0.0
aF0.0
aF0.0
aF0.0
aF0.0
aF0.0
aF0.0
aF0.0
aF0.0
aF0.0
aF0.0
aF0.0
asS'Bacteria.Proteobacteria.Gammaproteobacteria.Enterobacteriales.Enterobacteriaceae.Trabulsiella'
p571
(lp572
F0.0
aF0.0
aF0.0
aF0.0
aF0.0
aF0.0
aF0.0
aF0.0
aF0.0
aF0.0
aF0.0
aF0.0
aF0.0
aF0.0
aF0.0
aF0.0
aF0.0
aF0.0
aF0.0
aF0.0
aF0.0
aF0.0
aF0.0
aF0.0
aF0.0
aF0.0
aF0.0
aF0.0
aF0.0
aF0.0
asS'Bacteria.Bacteroidetes.Bacteroidia.Bacteroidales.Prevotellaceae.Prevotella'
p573
(lp574
F0.0
aF0.0
aF0.0
aF0.0
aF0.0
aF148.65467519000001
aF0.0
aF0.0
aF0.0
aF193.40489314388884
aF0.0
aF0.0
aF363.59229184369747
aF0.0
aF0.0
aF87.2448089338626
aF0.0
aF0.0
aF0.0
aF0.0
aF0.0
aF0.0
aF0.0
aF0.0
aF0.0
aF0.0
aF0.0
aF0.0
aF0.0
aF0.0
asS'Bacteria.Bacteroidetes.Sphingobacteria.Sphingobacteriales.Cyclobacteriaceae'
p575
(lp576
F0.0
aF0.0
aF0.0
aF0.0
aF0.0
aF0.0
aF0.0
aF0.0
aF0.0
aF0.0
aF0.0
aF0.0
aF0.0
aF0.0
aF0.0
aF0.0
aF0.0
aF0.0
aF0.0
aF0.0
aF0.0
aF0.0
aF0.0
aF0.0
aF0.0
aF0.0
aF0.0
aF0.0
aF0.0
aF0.0
asS'Bacteria.Bacteroidetes.Sphingobacteria.Sphingobacteriales'
p577
(lp578
F0.0
aF0.0
aF0.0
aF0.0
aF0.0
aF0.0
aF0.0
aF0.0
aF0.0
aF0.0
aF0.0
aF0.0
aF0.0
aF0.0
aF0.0
aF0.0
aF0.0
aF0.0
aF0.0
aF0.0
aF0.0
aF0.0
aF0.0
aF0.0
aF0.0
aF0.0
aF0.0
aF0.0
aF0.0
aF0.0
asS'Bacteria.Proteobacteria.Gammaproteobacteria.Enterobacteriales.Enterobacteriaceae.Kluyvera'
p579
(lp580
F0.0
aF0.0
aF0.0
aF0.0
aF0.0
aF0.0
aF0.0
aF0.0
aF0.0
aF0.0
aF0.0
aF0.0
aF0.0
aF0.0
aF0.0
aF0.0
aF0.0
aF0.0
aF0.0
aF0.0
aF0.0
aF0.0
aF0.0
aF0.0
aF0.0
aF0.0
aF0.0
aF0.0
aF0.0
aF0.0
asS'Bacteria.Firmicutes.Clostridia.Clostridiales.Ruminococcaceae.Subdoligranulum'
p581
(lp582
F0.0
aF0.0
aF0.0
aF0.0
aF0.0
aF0.0
aF0.0
aF0.0
aF0.0
aF0.0
aF0.0
aF0.0
aF0.0
aF0.0
aF0.0
aF87.2448089338626
aF0.0
aF0.0
aF0.0
aF0.0
aF0.0
aF0.0
aF0.0
aF0.0
aF0.0
aF0.0
aF0.0
aF0.0
aF0.0
aF0.0
asS'Bacteria.Firmicutes.Bacilli.Bacillales.Bacillales_incertae_sedis.Rummeliibacillus'
p583
(lp584
F0.0
aF0.0
aF0.0
aF0.0
aF0.0
aF0.0
aF0.0
aF0.0
aF0.0
aF0.0
aF0.0
aF0.0
aF0.0
aF0.0
aF0.0
aF0.0
aF0.0
aF0.0
aF0.0
aF0.0
aF0.0
aF0.0
aF0.0
aF0.0
aF0.0
aF0.0
aF0.0
aF0.0
aF0.0
aF0.0
asS'Bacteria.Bacteroidetes.Bacteroidia.Bacteroidales.Porphyromonadaceae.Tannerella'
p585
(lp586
F0.0
aF0.0
aF0.0
aF0.0
aF0.0
aF0.0
aF0.0
aF0.0
aF0.0
aF0.0
aF0.0
aF0.0
aF0.0
aF0.0
aF0.0
aF0.0
aF0.0
aF0.0
aF0.0
aF0.0
aF0.0
aF0.0
aF0.0
aF0.0
aF0.0
aF0.0
aF0.0
aF0.0
aF0.0
aF0.0
asS'Bacteria.Firmicutes.Bacilli.Lactobacillales.Carnobacteriaceae.Dolosigranulum'
p587
(lp588
F0.0
aF0.0
aF0.0
aF0.0
aF0.0
aF0.0
aF0.0
aF0.0
aF0.0
aF0.0
aF0.0
aF0.0
aF0.0
aF0.0
aF0.0
aF0.0
aF0.0
aF0.0
aF0.0
aF0.0
aF0.0
aF0.0
aF0.0
aF0.0
aF0.0
aF0.0
aF0.0
aF0.0
aF0.0
aF0.0
asS'Bacteria.Firmicutes.Clostridia.Clostridiales.Ruminococcaceae.Ruminococcus'
p589
(lp590
F138.10247203375499
aF0.0
aF0.0
aF0.0
aF0.0
aF0.0
aF0.0
aF0.0
aF0.0
aF0.0
aF0.0
aF0.0
aF0.0
aF0.0
aF0.0
aF0.0
aF126.10340479200001
aF0.0
aF0.0
aF0.0
aF0.0
aF0.0
aF0.0
aF0.0
aF0.0
aF0.0
aF0.0
aF0.0
aF0.0
aF0.0
asS'Bacteria.Firmicutes.Bacilli.Lactobacillales'
p591
(lp592
F13395.939787317247
aF20244.537983600003
aF490200.76481792284
aF36771.402550103441
aF18613.764388959789
aF199048.61007900001
aF88832.978517480355
aF45294.635004393131
aF19539.427773921852
aF15569.093898066038
aF131778.741866
aF16648.471615767852
aF35268.452308764477
aF15236.008763199743
aF139642.62078126223
aF49118.82742975554
aF34047.919293799998
aF53560.848441800001
aF56288.962229586476
aF42529.989094887482
aF14388.489208666208
aF325549.65883199999
aF45646.661031282078
aF5742.5965544447899
aF31650.435673996111
aF63999.232393051148
aF291101.05580700003
aF11413.307430826873
aF32964.883106690082
aF23884.197828708206
asS'Bacteria.Actinobacteria.Actinobacteria.Coriobacteriales.Coriobacteriaceae.Coriobacterium'
p593
(lp594
F0.0
aF0.0
aF0.0
aF0.0
aF0.0
aF0.0
aF0.0
aF0.0
aF0.0
aF0.0
aF0.0
aF0.0
aF0.0
aF0.0
aF0.0
aF0.0
aF0.0
aF0.0
aF0.0
aF0.0
aF0.0
aF0.0
aF0.0
aF0.0
aF0.0
aF0.0
aF0.0
aF0.0
aF0.0
aF0.0
asS'Bacteria.Actinobacteria.Actinobacteria.Coriobacteriales.Coriobacteriaceae.Gordonibacter'
p595
(lp596
F0.0
aF0.0
aF119.50286806852372
aF0.0
aF0.0
aF0.0
aF0.0
aF0.0
aF0.0
aF96.702446571944421
aF0.0
aF0.0
aF0.0
aF0.0
aF220.60445621011232
aF87.2448089338626
aF0.0
aF0.0
aF0.0
aF0.0
aF0.0
aF0.0
aF0.0
aF0.0
aF128.1394156837612
aF0.0
aF0.0
aF0.0
aF0.0
aF0.0
asS'Bacteria.Firmicutes.Bacilli.Bacillales.Bacillaceae.Lysinibacillus'
p597
(lp598
F0.0
aF0.0
aF0.0
aF0.0
aF0.0
aF0.0
aF0.0
aF0.0
aF0.0
aF0.0
aF0.0
aF0.0
aF363.59229184369747
aF0.0
aF0.0
aF0.0
aF0.0
aF0.0
aF0.0
aF0.0
aF0.0
aF0.0
aF0.0
aF0.0
aF0.0
aF0.0
aF0.0
aF0.0
aF0.0
aF0.0
asS'Bacteria.Chlamydiae.Chlamydiae'
p599
(lp600
F0.0
aF0.0
aF0.0
aF0.0
aF0.0
aF0.0
aF0.0
aF0.0
aF0.0
aF0.0
aF0.0
aF0.0
aF0.0
aF0.0
aF0.0
aF0.0
aF0.0
aF0.0
aF0.0
aF0.0
aF0.0
aF0.0
aF0.0
aF0.0
aF0.0
aF0.0
aF0.0
aF0.0
aF0.0
aF0.0
asS'Bacteria.Actinobacteria.Actinobacteria.Rubrobacterales.Rubrobacteraceae'
p601
(lp602
F0.0
aF0.0
aF0.0
aF0.0
aF0.0
aF0.0
aF0.0
aF0.0
aF0.0
aF0.0
aF0.0
aF0.0
aF0.0
aF0.0
aF0.0
aF0.0
aF0.0
aF0.0
aF0.0
aF0.0
aF0.0
aF0.0
aF0.0
aF0.0
aF0.0
aF0.0
aF0.0
aF0.0
aF0.0
aF0.0
asS'Bacteria.Bacteroidetes.Bacteroidia.Bacteroidales.Bacteroidales_incertae_sedis'
p603
(lp604
F0.0
aF0.0
aF0.0
aF0.0
aF0.0
aF0.0
aF0.0
aF0.0
aF0.0
aF0.0
aF0.0
aF0.0
aF0.0
aF0.0
aF0.0
aF0.0
aF0.0
aF0.0
aF0.0
aF0.0
aF0.0
aF0.0
aF0.0
aF0.0
aF0.0
aF0.0
aF0.0
aF0.0
aF0.0
aF0.0
asS'Bacteria.Proteobacteria.Gammaproteobacteria.Enterobacteriales.Enterobacteriaceae.Rahnella'
p605
(lp606
F0.0
aF0.0
aF0.0
aF0.0
aF0.0
aF0.0
aF0.0
aF0.0
aF0.0
aF0.0
aF0.0
aF0.0
aF0.0
aF0.0
aF0.0
aF0.0
aF0.0
aF0.0
aF0.0
aF0.0
aF0.0
aF0.0
aF0.0
aF0.0
aF0.0
aF0.0
aF0.0
aF0.0
aF0.0
aF0.0
asS'Bacteria.Proteobacteria.Deltaproteobacteria.Desulfovibrionales.Desulfovibrionaceae'
p607
(lp608
F966.7173042392858
aF801.76388053700009
aF597.51434034361921
aF2276.8670309689442
aF734.75385745755113
aF0.0
aF1645.0551577325996
aF2345.3532688339487
aF1046.755059315813
aF1353.8342520092233
aF2386.1171366600001
aF1455.6040756953862
aF2302.7511816740775
aF2887.8709420447231
aF2647.2534745153448
aF1308.672134012445
aF2900.3783102100001
aF1895.9592368799999
aF1100.1100109997028
aF1090.5125408994288
aF205.54984583780279
aF1213.0401819599999
aF986.19329388600795
aF2814.9983110011708
aF896.97590978933101
aF671.6561120709116
aF464.09096182899998
aF1133.2361988057178
aF2054.1915289074241
aF2171.2907117062041
asS'Bacteria.Chloroflexi'
p609
(lp610
F0.0
aF0.0
aF0.0
aF0.0
aF0.0
aF0.0
aF0.0
aF0.0
aF0.0
aF0.0
aF0.0
aF0.0
aF0.0
aF0.0
aF0.0
aF0.0
aF0.0
aF0.0
aF0.0
aF0.0
aF0.0
aF0.0
aF0.0
aF0.0
aF0.0
aF0.0
aF0.0
aF0.0
aF0.0
aF0.0
asS'Bacteria.Bacteroidetes.Bacteroidia.Bacteroidales.Rikenellaceae.Alistipes'
p611
(lp612
F19472.448556838477
aF1002.20485067
aF40630.975143358104
aF9221.3114754092221
aF18368.846436464137
aF4013.6762301200001
aF4354.5577704668804
aF18176.487833513107
aF7676.2037683192966
aF967.02446571944415
aF34273.318871999996
aF9370.4512372609206
aF25330.262998384784
aF38139.812786250979
aF14670.196337952961
aF23381.608794247542
aF43883.984867599997
aF7583.8369475099998
aF18151.815181490096
aF14176.663031662536
aF1233.2990750228141
aF6065.2009097800001
aF4649.1969568863224
aF9796.1941222828718
aF43695.540748283674
aF12953.367875681872
aF7425.4553892599997
aF13598.83438560859
aF23378.655971862114
aF1688.7816646570454
asS'Bacteria.Firmicutes.Clostridia.Clostridiales.Veillonellaceae'
p613
(lp614
F0.0
aF0.0
aF0.0
aF0.0
aF244.91795248551233
aF0.0
aF0.0
aF0.0
aF0.0
aF0.0
aF0.0
aF0.0
aF0.0
aF0.0
aF0.0
aF0.0
aF0.0
aF0.0
aF0.0
aF0.0
aF0.0
aF0.0
aF0.0
aF0.0
aF0.0
aF0.0
aF0.0
aF0.0
aF0.0
aF0.0
asS'Bacteria.Firmicutes.Erysipelotrichi.Erysipelotrichales.Erysipelotrichaceae.Turicibacter'
p615
(lp616
F0.0
aF0.0
aF0.0
aF0.0
aF0.0
aF0.0
aF0.0
aF0.0
aF0.0
aF0.0
aF0.0
aF0.0
aF0.0
aF0.0
aF0.0
aF0.0
aF0.0
aF0.0
aF0.0
aF0.0
aF0.0
aF0.0
aF0.0
aF0.0
aF0.0
aF0.0
aF0.0
aF0.0
aF0.0
aF0.0
asS'Bacteria.Fusobacteria'
p617
(lp618
F0.0
aF0.0
aF0.0
aF0.0
aF0.0
aF0.0
aF0.0
aF0.0
aF0.0
aF0.0
aF0.0
aF0.0
aF0.0
aF0.0
aF0.0
aF0.0
aF0.0
aF0.0
aF0.0
aF0.0
aF0.0
aF0.0
aF0.0
aF0.0
aF0.0
aF0.0
aF0.0
aF0.0
aF0.0
aF0.0
asS'Bacteria.Firmicutes.Clostridia'
p619
(lp620
F679878.46982471365
aF222489.476849
aF272466.53919655428
aF371812.38615703851
aF447465.09919150773
aF93206.481343800013
aF507547.90013565199
aF549105.83406652336
aF404919.74877863028
aF261966.92776302414
aF538937.09327499999
aF729985.44395955093
aF756514.36189519637
aF663513.24437406333
aF467350.5404808874
aF537777.00226899516
aF669735.18284999998
aF672354.54437699995
aF662266.22662288125
aF743947.65539820399
aF845632.06577604427
aF336012.13040200004
aF773457.31191925204
aF860939.08343652834
aF598026.65299854265
aF789867.587795072
aF495997.21545399999
aF801278.93799540109
aF805732.17255210655
aF696019.30036253249
asS'Bacteria.Firmicutes.Clostridia.Clostridiales.Lachnospiraceae.Coprococcus'
p621
(lp622
F0.0
aF0.0
aF0.0
aF0.0
aF0.0
aF0.0
aF0.0
aF0.0
aF0.0
aF0.0
aF0.0
aF0.0
aF242.39486122879754
aF0.0
aF0.0
aF87.2448089338626
aF126.10340479200001
aF0.0
aF183.35166850061725
aF0.0
aF0.0
aF0.0
aF0.0
aF112.59993244044718
aF128.1394156837612
aF0.0
aF0.0
aF80.945442771594045
aF0.0
aF241.25452352257804
asS'Bacteria.Bacteroidetes.Bacteroidia.Bacteroidales.Prevotellaceae.Xylanibacter'
p623
(lp624
F0.0
aF0.0
aF0.0
aF0.0
aF0.0
aF0.0
aF0.0
aF0.0
aF0.0
aF0.0
aF0.0
aF0.0
aF0.0
aF0.0
aF0.0
aF0.0
aF0.0
aF0.0
aF0.0
aF0.0
aF0.0
aF0.0
aF0.0
aF0.0
aF0.0
aF0.0
aF0.0
aF0.0
aF0.0
aF0.0
asS'Bacteria.Proteobacteria.Deltaproteobacteria.Desulfovibrionales.Desulfovibrionaceae.Lawsonia'
p625
(lp626
F0.0
aF0.0
aF0.0
aF0.0
aF0.0
aF0.0
aF0.0
aF0.0
aF0.0
aF0.0
aF0.0
aF0.0
aF242.39486122879754
aF0.0
aF0.0
aF0.0
aF504.41361916800003
aF0.0
aF0.0
aF0.0
aF0.0
aF151.63002274499999
aF0.0
aF225.19986487989345
aF128.1394156837612
aF0.0
aF0.0
aF80.945442771594045
aF195.63728846761182
aF482.50904704515608
asS'Bacteria.Actinobacteria.Actinobacteria.Rubrobacterales'
p627
(lp628
F0.0
aF0.0
aF0.0
aF0.0
aF0.0
aF0.0
aF0.0
aF0.0
aF0.0
aF0.0
aF0.0
aF0.0
aF0.0
aF0.0
aF0.0
aF0.0
aF0.0
aF0.0
aF0.0
aF0.0
aF0.0
aF0.0
aF0.0
aF0.0
aF0.0
aF0.0
aF0.0
aF0.0
aF0.0
aF0.0
asS'Bacteria.Firmicutes.Clostridia.Clostridiales.Eubacteriaceae.Garciella'
p629
(lp630
F0.0
aF0.0
aF0.0
aF0.0
aF0.0
aF0.0
aF0.0
aF0.0
aF0.0
aF0.0
aF0.0
aF0.0
aF0.0
aF0.0
aF0.0
aF0.0
aF0.0
aF0.0
aF0.0
aF0.0
aF0.0
aF0.0
aF0.0
aF0.0
aF0.0
aF0.0
aF0.0
aF0.0
aF0.0
aF0.0
asS'Bacteria.Firmicutes.Bacilli.Bacillales.Planococcaceae.Sporosarcina'
p631
(lp632
F0.0
aF0.0
aF0.0
aF0.0
aF0.0
aF0.0
aF0.0
aF0.0
aF0.0
aF0.0
aF0.0
aF0.0
aF0.0
aF0.0
aF0.0
aF0.0
aF0.0
aF0.0
aF0.0
aF0.0
aF0.0
aF0.0
aF0.0
aF0.0
aF0.0
aF0.0
aF0.0
aF0.0
aF0.0
aF0.0
asS'Bacteria.Firmicutes.Clostridia.Thermoanaerobacterales.Thermoanaerobacteraceae.Thermoanaerobacterium'
p633
(lp634
F0.0
aF0.0
aF0.0
aF0.0
aF0.0
aF0.0
aF0.0
aF0.0
aF0.0
aF0.0
aF0.0
aF0.0
aF0.0
aF0.0
aF0.0
aF0.0
aF0.0
aF0.0
aF0.0
aF0.0
aF0.0
aF0.0
aF0.0
aF0.0
aF0.0
aF0.0
aF0.0
aF0.0
aF0.0
aF0.0
asS'Bacteria.Firmicutes.Clostridia.Thermoanaerobacterales.Thermoanaerobacteraceae'
p635
(lp636
F0.0
aF0.0
aF0.0
aF0.0
aF0.0
aF0.0
aF0.0
aF0.0
aF0.0
aF0.0
aF0.0
aF0.0
aF0.0
aF0.0
aF0.0
aF0.0
aF0.0
aF0.0
aF0.0
aF0.0
aF0.0
aF0.0
aF0.0
aF0.0
aF0.0
aF0.0
aF0.0
aF0.0
aF0.0
aF0.0
asS'Archaea.Crenarchaeota.Thermoprotei.Thermoproteales.Thermoproteaceae'
p637
(lp638
F0.0
aF0.0
aF0.0
aF0.0
aF0.0
aF0.0
aF0.0
aF0.0
aF0.0
aF0.0
aF0.0
aF0.0
aF0.0
aF0.0
aF0.0
aF0.0
aF0.0
aF0.0
aF0.0
aF0.0
aF0.0
aF0.0
aF0.0
aF0.0
aF0.0
aF0.0
aF0.0
aF0.0
aF0.0
aF0.0
asS'Bacteria.Firmicutes.Clostridia.Clostridiales.Ruminococcaceae.Sporobacter'
p639
(lp640
F0.0
aF0.0
aF0.0
aF0.0
aF0.0
aF0.0
aF0.0
aF0.0
aF0.0
aF0.0
aF0.0
aF0.0
aF0.0
aF0.0
aF0.0
aF0.0
aF0.0
aF0.0
aF0.0
aF0.0
aF0.0
aF0.0
aF0.0
aF0.0
aF0.0
aF0.0
aF0.0
aF0.0
aF0.0
aF0.0
asS'Bacteria.Acidobacteria'
p641
(lp642
F0.0
aF0.0
aF0.0
aF0.0
aF0.0
aF0.0
aF0.0
aF0.0
aF0.0
aF0.0
aF0.0
aF0.0
aF0.0
aF0.0
aF0.0
aF0.0
aF0.0
aF0.0
aF0.0
aF0.0
aF0.0
aF0.0
aF0.0
aF0.0
aF0.0
aF0.0
aF0.0
aF0.0
aF0.0
aF0.0
asS'Bacteria.Actinobacteria.Actinobacteria.Actinomycetales.Nocardioidaceae'
p643
(lp644
F0.0
aF0.0
aF0.0
aF0.0
aF0.0
aF0.0
aF0.0
aF0.0
aF0.0
aF0.0
aF0.0
aF0.0
aF0.0
aF0.0
aF0.0
aF0.0
aF0.0
aF0.0
aF0.0
aF0.0
aF0.0
aF0.0
aF0.0
aF0.0
aF0.0
aF0.0
aF348.06822137099999
aF0.0
aF0.0
aF0.0
asS'Archaea.Euryarchaeota'
p645
(lp646
F0.0
aF0.0
aF0.0
aF0.0
aF0.0
aF0.0
aF0.0
aF0.0
aF0.0
aF0.0
aF0.0
aF0.0
aF0.0
aF0.0
aF0.0
aF0.0
aF0.0
aF0.0
aF0.0
aF0.0
aF0.0
aF0.0
aF0.0
aF0.0
aF0.0
aF0.0
aF0.0
aF0.0
aF0.0
aF0.0
asS'Bacteria.Firmicutes.Clostridia.Clostridiales.Peptostreptococcaceae.Filifactor'
p647
(lp648
F0.0
aF0.0
aF0.0
aF0.0
aF0.0
aF0.0
aF0.0
aF0.0
aF0.0
aF0.0
aF0.0
aF0.0
aF0.0
aF0.0
aF0.0
aF0.0
aF0.0
aF0.0
aF0.0
aF0.0
aF0.0
aF0.0
aF0.0
aF0.0
aF0.0
aF0.0
aF0.0
aF0.0
aF0.0
aF0.0
asS'Bacteria.Firmicutes.Bacilli.Lactobacillales.Leuconostocaceae.Leuconostoc'
p649
(lp650
F0.0
aF0.0
aF0.0
aF0.0
aF0.0
aF0.0
aF0.0
aF0.0
aF0.0
aF0.0
aF0.0
aF0.0
aF0.0
aF0.0
aF0.0
aF0.0
aF0.0
aF0.0
aF0.0
aF0.0
aF0.0
aF0.0
aF0.0
aF0.0
aF0.0
aF0.0
aF0.0
aF0.0
aF0.0
aF0.0
asS'Bacteria.Bacteroidetes.Bacteroidia.Bacteroidales.Porphyromonadaceae.Paludibacter'
p651
(lp652
F0.0
aF0.0
aF0.0
aF0.0
aF0.0
aF0.0
aF0.0
aF0.0
aF0.0
aF0.0
aF0.0
aF0.0
aF0.0
aF0.0
aF0.0
aF0.0
aF0.0
aF0.0
aF0.0
aF0.0
aF0.0
aF0.0
aF0.0
aF0.0
aF0.0
aF0.0
aF0.0
aF0.0
aF0.0
aF0.0
asS'Bacteria.Proteobacteria.Gammaproteobacteria.Thiotrichales.Thiotrichaceae'
p653
(lp654
F0.0
aF0.0
aF0.0
aF0.0
aF0.0
aF0.0
aF0.0
aF0.0
aF0.0
aF0.0
aF0.0
aF0.0
aF0.0
aF0.0
aF0.0
aF0.0
aF0.0
aF0.0
aF0.0
aF0.0
aF0.0
aF0.0
aF0.0
aF0.0
aF0.0
aF0.0
aF0.0
aF0.0
aF0.0
aF482.50904704515608
asS'Bacteria.Firmicutes.Clostridia.Clostridiales.Lachnospiraceae.Oribacterium'
p655
(lp656
F0.0
aF0.0
aF0.0
aF0.0
aF0.0
aF0.0
aF0.0
aF0.0
aF0.0
aF0.0
aF0.0
aF0.0
aF0.0
aF0.0
aF0.0
aF0.0
aF0.0
aF0.0
aF0.0
aF0.0
aF0.0
aF0.0
aF0.0
aF0.0
aF0.0
aF0.0
aF0.0
aF0.0
aF0.0
aF0.0
asS'Bacteria.Firmicutes.Clostridia.Halanaerobiales.Halanaerobiaceae'
p657
(lp658
F0.0
aF0.0
aF0.0
aF0.0
aF0.0
aF0.0
aF0.0
aF0.0
aF0.0
aF0.0
aF0.0
aF0.0
aF0.0
aF0.0
aF0.0
aF0.0
aF0.0
aF0.0
aF0.0
aF0.0
aF0.0
aF0.0
aF0.0
aF0.0
aF0.0
aF0.0
aF0.0
aF0.0
aF0.0
aF0.0
asS'Bacteria.Proteobacteria.Gammaproteobacteria.Aeromonadales.Aeromonadaceae'
p659
(lp660
F0.0
aF0.0
aF0.0
aF0.0
aF0.0
aF0.0
aF0.0
aF0.0
aF0.0
aF0.0
aF0.0
aF0.0
aF0.0
aF0.0
aF0.0
aF0.0
aF0.0
aF0.0
aF0.0
aF0.0
aF0.0
aF0.0
aF0.0
aF0.0
aF128.1394156837612
aF0.0
aF0.0
aF0.0
aF0.0
aF0.0
asS'Bacteria.Proteobacteria.Betaproteobacteria.Burkholderiales.Oxalobacteraceae.Massilia'
p661
(lp662
F0.0
aF0.0
aF0.0
aF0.0
aF0.0
aF0.0
aF0.0
aF0.0
aF0.0
aF0.0
aF0.0
aF0.0
aF0.0
aF0.0
aF0.0
aF0.0
aF0.0
aF0.0
aF0.0
aF0.0
aF0.0
aF0.0
aF0.0
aF0.0
aF0.0
aF0.0
aF0.0
aF0.0
aF0.0
aF0.0
asS'Archaea.Euryarchaeota.Methanomicrobia'
p663
(lp664
F0.0
aF0.0
aF0.0
aF0.0
aF0.0
aF0.0
aF0.0
aF0.0
aF0.0
aF0.0
aF0.0
aF0.0
aF0.0
aF0.0
aF0.0
aF0.0
aF0.0
aF0.0
aF0.0
aF0.0
aF0.0
aF0.0
aF0.0
aF0.0
aF0.0
aF0.0
aF0.0
aF0.0
aF0.0
aF0.0
asS'Bacteria.Firmicutes.Bacilli.Bacillales.Bacillaceae.Filobacillus'
p665
(lp666
F0.0
aF0.0
aF0.0
aF0.0
aF0.0
aF0.0
aF0.0
aF0.0
aF0.0
aF0.0
aF0.0
aF0.0
aF0.0
aF0.0
aF0.0
aF0.0
aF0.0
aF0.0
aF0.0
aF0.0
aF0.0
aF0.0
aF0.0
aF0.0
aF0.0
aF0.0
aF0.0
aF0.0
aF0.0
aF0.0
asS'Bacteria.Proteobacteria.Betaproteobacteria.Burkholderiales'
p667
(lp668
F552.40988813702063
aF6814.9929845699999
aF10635.755258139638
aF14799.635701248131
aF489.83590497203886
aF15162.776869300002
aF7934.9719372925374
aF4983.8756962771413
aF5059.3161200297636
aF9766.9471037593812
aF1193.0585683300001
aF4275.8369723420701
aF363.59229184369747
aF995.8175662216629
aF8052.0626516695993
aF27656.604432027536
aF16267.339218200001
aF9361.2987320800003
aF10634.396773053804
aF3707.7426390440401
aF0.0
aF26231.993934800001
aF563.53902507743305
aF675.59959463968039
aF3716.0430548480917
aF3933.9857992681955
aF14386.819816700001
aF2185.5269548317383
aF293.45593270091769
aF2412.5452352257803
asS'Bacteria.Firmicutes.Bacilli.Bacillales.Bacillales_incertae_sedis'
p669
(lp670
F0.0
aF0.0
aF0.0
aF0.0
aF0.0
aF0.0
aF0.0
aF0.0
aF0.0
aF0.0
aF0.0
aF0.0
aF0.0
aF0.0
aF0.0
aF0.0
aF0.0
aF0.0
aF0.0
aF0.0
aF0.0
aF0.0
aF0.0
aF0.0
aF0.0
aF0.0
aF0.0
aF0.0
aF0.0
aF0.0
asS'Bacteria.Firmicutes.Clostridia.Clostridiales.Lachnospiraceae.Anaerosporobacter'
p671
(lp672
F0.0
aF0.0
aF0.0
aF0.0
aF0.0
aF0.0
aF0.0
aF0.0
aF0.0
aF0.0
aF0.0
aF0.0
aF0.0
aF0.0
aF0.0
aF0.0
aF0.0
aF0.0
aF0.0
aF0.0
aF0.0
aF0.0
aF0.0
aF0.0
aF0.0
aF0.0
aF0.0
aF0.0
aF0.0
aF0.0
asS'Bacteria.Deferribacteres.Deferribacteres.Deferribacterales'
p673
(lp674
F13948.349675428261
aF16636.600521100001
aF13862.332695952755
aF9562.8415300595643
aF16899.338721490207
aF1783.8561022700001
aF58931.681826963111
aF42949.281735559191
aF13607.81577114559
aF21661.348032087531
aF14316.70282
aF13919.213973845255
aF32844.503696486528
aF21907.986456918592
aF53165.673946634073
aF14220.903856190467
aF24211.8537201
aF20618.556700999998
aF15951.595159530696
aF16793.893129777109
aF22816.032887922061
aF8339.6512509499989
aF30994.646379308833
aF6868.5958788392527
aF9866.7350076866442
aF9978.8908079064004
aF4408.8641373700002
aF15622.470454950964
aF26997.945808460423
aF30880.579010845955
asS'Bacteria.Proteobacteria.Betaproteobacteria.Burkholderiales.Burkholderiales_incertae_sedis'
p675
(lp676
F0.0
aF0.0
aF0.0
aF0.0
aF0.0
aF0.0
aF0.0
aF0.0
aF0.0
aF0.0
aF0.0
aF0.0
aF0.0
aF0.0
aF0.0
aF0.0
aF0.0
aF0.0
aF0.0
aF0.0
aF0.0
aF0.0
aF0.0
aF0.0
aF0.0
aF0.0
aF0.0
aF0.0
aF0.0
aF241.25452352257804
asS'Bacteria.Firmicutes.Clostridia.Clostridiales.Lachnospiraceae.Marvinbryantia'
p677
(lp678
F0.0
aF0.0
aF0.0
aF0.0
aF0.0
aF0.0
aF0.0
aF0.0
aF0.0
aF0.0
aF0.0
aF0.0
aF0.0
aF99.581756622166296
aF0.0
aF0.0
aF0.0
aF0.0
aF0.0
aF0.0
aF0.0
aF0.0
aF0.0
aF0.0
aF0.0
aF0.0
aF0.0
aF0.0
aF0.0
aF0.0
asS'Bacteria.Firmicutes.Bacilli.Bacillales.Bacillaceae.Salirhabdus'
p679
(lp680
F0.0
aF0.0
aF0.0
aF0.0
aF0.0
aF0.0
aF0.0
aF0.0
aF0.0
aF0.0
aF0.0
aF0.0
aF0.0
aF0.0
aF0.0
aF0.0
aF0.0
aF0.0
aF0.0
aF0.0
aF0.0
aF0.0
aF0.0
aF0.0
aF0.0
aF0.0
aF0.0
aF0.0
aF0.0
aF0.0
asS'Bacteria.Bacteroidetes.Bacteroidia.Bacteroidales.Prevotellaceae.Paraprevotella'
p681
(lp682
F0.0
aF0.0
aF0.0
aF0.0
aF0.0
aF0.0
aF0.0
aF0.0
aF0.0
aF0.0
aF0.0
aF0.0
aF121.19743061489991
aF99.581756622166296
aF0.0
aF0.0
aF0.0
aF0.0
aF0.0
aF0.0
aF0.0
aF0.0
aF0.0
aF0.0
aF0.0
aF0.0
aF0.0
aF0.0
aF0.0
aF0.0
asS'Bacteria.Firmicutes.Bacilli.Bacillales.Staphylococcaceae'
p683
(lp684
F7457.5334898487781
aF22449.388654999999
aF2868.0688336505732
aF10815.118397077482
aF3673.7692872928274
aF2675.7841534100003
aF7354.3642345616199
aF14658.457930262186
aF26343.33565944462
aF3384.5856300130513
aF2711.4967462
aF10189.228529837699
aF0.0
aF0.0
aF110.30222810455594
aF4798.4644913689517
aF12736.443884
aF16234.150965800001
aF18151.815181490096
aF4143.9476553998056
aF205.54984583780279
aF1819.5602729300001
aF2817.6951253871653
aF675.59959463968039
aF768.83649410556984
aF0.0
aF2668.5230305099999
aF404.72721385746996
aF782.5491538694472
aF482.50904704515608
asS'Bacteria.Proteobacteria.Gammaproteobacteria.Aeromonadales'
p685
(lp686
F0.0
aF0.0
aF0.0
aF0.0
aF0.0
aF0.0
aF0.0
aF0.0
aF0.0
aF0.0
aF0.0
aF0.0
aF0.0
aF0.0
aF0.0
aF0.0
aF0.0
aF0.0
aF0.0
aF0.0
aF0.0
aF0.0
aF0.0
aF0.0
aF128.1394156837612
aF0.0
aF0.0
aF0.0
aF0.0
aF0.0
asS'Bacteria.Actinobacteria.Actinobacteria.Actinomycetales.Beutenbergiaceae'
p687
(lp688
F0.0
aF0.0
aF0.0
aF0.0
aF0.0
aF0.0
aF0.0
aF0.0
aF0.0
aF0.0
aF0.0
aF0.0
aF0.0
aF0.0
aF0.0
aF0.0
aF0.0
aF0.0
aF0.0
aF0.0
aF0.0
aF0.0
aF0.0
aF0.0
aF0.0
aF0.0
aF0.0
aF0.0
aF0.0
aF0.0
asS'Bacteria.Bacteroidetes.Bacteroidia.Bacteroidales.Porphyromonadaceae.Barnesiella'
p689
(lp690
F7457.5334898487781
aF54319.502906399997
aF18164.435946503661
aF93010.018214926356
aF9061.9642419842403
aF134532.48104700001
aF41126.378943314987
aF42216.358839011067
aF62979.762735498072
aF114108.88695443406
aF20824.2950108
aF26837.700145605551
aF5211.4895164176432
aF25293.766182029638
aF39157.290977262426
aF35072.413191421379
aF7313.9974779300001
aF16352.6484181
aF28052.80528055743
aF4143.9476553998056
aF0.0
aF14708.112206199999
aF1408.8475626985842
aF2026.7987839240457
aF33956.945156361864
aF4125.8875455727421
aF11138.183083899999
aF3480.6540391768431
aF195.63728846761182
aF5548.8540410102878
asS'Archaea.Crenarchaeota.Thermoprotei.Thermoproteales'
p691
(lp692
F0.0
aF0.0
aF0.0
aF0.0
aF0.0
aF0.0
aF0.0
aF0.0
aF0.0
aF0.0
aF0.0
aF0.0
aF0.0
aF0.0
aF0.0
aF0.0
aF0.0
aF0.0
aF0.0
aF0.0
aF0.0
aF0.0
aF0.0
aF0.0
aF0.0
aF0.0
aF0.0
aF0.0
aF0.0
aF0.0
asS'Bacteria'
p693
(lp694
F1000000.0
aF1000000.0
aF1000000.0
aF1000000.0000000001
aF1000000.0000000001
aF1000000.0
aF1000000.0
aF999999.99999999988
aF1000000.0
aF999999.99999999988
aF1000000.0
aF999999.99999999988
aF1000000.0
aF1000000.0
aF1000000.0
aF999999.99999999988
aF1000000.0
aF1000000.0
aF1000000.0
aF1000000.0000000001
aF999999.99999999988
aF1000000.0
aF1000000.0
aF1000000.0000000001
aF1000000.0
aF1000000.0
aF1000000.0
aF1000000.0
aF1000000.0
aF1000000.0000000001
asS'Bacteria.Bacteroidetes.Bacteroidia.Bacteroidales.Porphyromonadaceae'
p695
(lp696
F21129.678221271544
aF104830.62737999999
aF24617.5908221299
aF144125.68306014413
aF15429.831006617704
aF214360.04162300003
aF66479.581962415046
aF67575.491058315645
aF113921.84228879426
aF198820.23015208586
aF40563.991323200004
aF39847.161572009929
aF6787.0561144083349
aF32065.325632351745
aF48091.771453810485
aF41005.060198936451
aF18663.3039092
aF23936.485365600001
aF32086.541987533004
aF5888.7677208328851
aF205.54984583780279
aF21683.093252500003
aF1831.5018314991567
aF4503.997297597869
aF39210.661199417096
aF12185.76089042368
aF17171.365587700002
aF8337.3806054684846
aF586.91186540183537
aF13510.253317276378
asS'Bacteria.Actinobacteria'
p697
(lp698
F828.61483220553077
aF134495.89095999999
aF4899.6175908184778
aF142873.4061929762
aF27920.646583388974
aF144195.034934
aF25159.667118239755
aF103048.9592494041
aF18492.672714626053
aF29590.94865103301
aF1735.3579175700002
aF1728.5298398876459
aF2787.5409041296684
aF3087.0344552912557
aF8713.8760202909325
aF6543.3606700421988
aF8827.238335439999
aF13153.217205800001
aF7334.0667400046859
aF1308.6150490773121
aF411.09969167560558
aF7733.1311599700002
aF422.65426880857501
aF450.39972975978691
aF3075.3459764242812
aF1343.3122241418232
aF2320.4548091400002
aF1214.181641575411
aF880.36779810275311
aF723.76357056673339
asS'Bacteria.Proteobacteria.Betaproteobacteria.Burkholderiales.Comamonadaceae.Verminephrobacter'
p699
(lp700
F0.0
aF0.0
aF0.0
aF0.0
aF0.0
aF0.0
aF0.0
aF0.0
aF0.0
aF0.0
aF0.0
aF0.0
aF0.0
aF0.0
aF0.0
aF0.0
aF0.0
aF0.0
aF0.0
aF0.0
aF0.0
aF0.0
aF0.0
aF0.0
aF0.0
aF0.0
aF0.0
aF0.0
aF0.0
aF0.0
asS'Bacteria.Cyanobacteria.Cyanobacteria'
p701
(lp702
F0.0
aF0.0
aF0.0
aF0.0
aF0.0
aF0.0
aF0.0
aF0.0
aF0.0
aF0.0
aF0.0
aF0.0
aF0.0
aF0.0
aF0.0
aF0.0
aF0.0
aF0.0
aF0.0
aF0.0
aF0.0
aF0.0
aF0.0
aF0.0
aF0.0
aF0.0
aF0.0
aF0.0
aF0.0
aF0.0
asS'Bacteria.Proteobacteria.Deltaproteobacteria.Desulfobacterales.Desulfobacteraceae'
p703
(lp704
F0.0
aF0.0
aF0.0
aF0.0
aF0.0
aF0.0
aF0.0
aF0.0
aF0.0
aF0.0
aF0.0
aF0.0
aF0.0
aF0.0
aF0.0
aF0.0
aF0.0
aF0.0
aF0.0
aF0.0
aF0.0
aF0.0
aF0.0
aF0.0
aF0.0
aF0.0
aF0.0
aF0.0
aF0.0
aF0.0
assS'subclass_sl'
p705
(dp706
g12
(I10
I30
tp707
sg10
(I0
I10
tp708
ssS'norm'
p709
F1000000.0
sS'cls'
p710
(dp711
S'class'
p712
(S'rag2'
p713
S'rag2'
p714
S'rag2'
p715
S'rag2'
p716
S'rag2'
p717
S'rag2'
p718
S'rag2'
p719
S'rag2'
p720
S'rag2'
p721
g3
S'truc'
p722
S'truc'
p723
S'truc'
p724
S'truc'
p725
S'truc'
p726
S'truc'
p727
S'truc'
p728
S'truc'
p729
S'truc'
p730
S'truc'
p731
S'truc'
p732
S'truc'
p733
S'truc'
p734
S'truc'
p735
S'truc'
p736
S'truc'
p737
S'truc'
p738
S'truc'
p739
S'truc'
p740
g5
tp741
sS'subclass'
p742
(lp743
S'rag2_0.0'
p744
aS'rag2_0.0'
p745
aS'rag2_0.0'
p746
aS'rag2_0.0'
p747
aS'rag2_0.0'
p748
aS'rag2_0.0'
p749
aS'rag2_0.0'
p750
aS'rag2_0.0'
p751
aS'rag2_0.0'
p752
ag10
aS'truc_0.0'
p753
aS'truc_0.0'
p754
aS'truc_0.0'
p755
aS'truc_0.0'
p756
aS'truc_0.0'
p757
aS'truc_0.0'
p758
aS'truc_0.0'
p759
aS'truc_0.0'
p760
aS'truc_0.0'
p761
aS'truc_0.0'
p762
aS'truc_0.0'
p763
aS'truc_0.0'
p764
aS'truc_0.0'
p765
aS'truc_0.0'
p766
aS'truc_0.0'
p767
aS'truc_0.0'
p768
aS'truc_0.0'
p769
aS'truc_0.0'
p770
aS'truc_0.0'
p771
ag12
asS'subject'
p772
(S'0.0'
p773
S'0.0'
p774
S'0.0'
p775
S'0.0'
p776
S'0.0'
p777
S'0.0'
p778
S'0.0'
p779
S'0.0'
p780
S'0.0'
p781
S'0.0'
p782
S'0.0'
p783
S'0.0'
p784
S'0.0'
p785
S'0.0'
p786
S'0.0'
p787
S'0.0'
p788
S'0.0'
p789
S'0.0'
p790
S'0.0'
p791
S'0.0'
p792
S'0.0'
p793
S'0.0'
p794
S'0.0'
p795
S'0.0'
p796
S'0.0'
p797
S'0.0'
p798
S'0.0'
p799
S'0.0'
p800
S'0.0'
p801
S'0.0'
p802
tp803
ss.